
Laderegler.elf:     file format elf32-avr

Sections:
Idx Name          Size      VMA       LMA       File off  Algn
  0 .text         00000b5c  00000000  00000000  00000094  2**1
                  CONTENTS, ALLOC, LOAD, READONLY, CODE
  1 .data         00000012  00800060  00000b5c  00000bf0  2**0
                  CONTENTS, ALLOC, LOAD, DATA
  2 .bss          00000003  00800072  00800072  00000c02  2**0
                  ALLOC
  3 .stab         000029a0  00000000  00000000  00000c04  2**2
                  CONTENTS, READONLY, DEBUGGING
  4 .stabstr      00000cef  00000000  00000000  000035a4  2**0
                  CONTENTS, READONLY, DEBUGGING

Disassembly of section .text:

00000000 <__vectors>:
   0:	12 c0       	rjmp	.+36     	; 0x26 <__ctors_end>
   2:	2c c0       	rjmp	.+88     	; 0x5c <__bad_interrupt>
   4:	2b c0       	rjmp	.+86     	; 0x5c <__bad_interrupt>
   6:	2a c0       	rjmp	.+84     	; 0x5c <__bad_interrupt>
   8:	29 c0       	rjmp	.+82     	; 0x5c <__bad_interrupt>
   a:	28 c0       	rjmp	.+80     	; 0x5c <__bad_interrupt>
   c:	27 c0       	rjmp	.+78     	; 0x5c <__bad_interrupt>
   e:	26 c0       	rjmp	.+76     	; 0x5c <__bad_interrupt>
  10:	25 c0       	rjmp	.+74     	; 0x5c <__bad_interrupt>
  12:	4e c1       	rjmp	.+668    	; 0x2b0 <__vector_9>
  14:	23 c0       	rjmp	.+70     	; 0x5c <__bad_interrupt>
  16:	22 c0       	rjmp	.+68     	; 0x5c <__bad_interrupt>
  18:	21 c0       	rjmp	.+66     	; 0x5c <__bad_interrupt>
  1a:	20 c0       	rjmp	.+64     	; 0x5c <__bad_interrupt>
  1c:	1f c0       	rjmp	.+62     	; 0x5c <__bad_interrupt>
  1e:	1e c0       	rjmp	.+60     	; 0x5c <__bad_interrupt>
  20:	1d c0       	rjmp	.+58     	; 0x5c <__bad_interrupt>
  22:	1c c0       	rjmp	.+56     	; 0x5c <__bad_interrupt>
  24:	1b c0       	rjmp	.+54     	; 0x5c <__bad_interrupt>

00000026 <__ctors_end>:
  26:	11 24       	eor	r1, r1
  28:	1f be       	out	0x3f, r1	; 63
  2a:	cf e5       	ldi	r28, 0x5F	; 95
  2c:	d4 e0       	ldi	r29, 0x04	; 4
  2e:	de bf       	out	0x3e, r29	; 62
  30:	cd bf       	out	0x3d, r28	; 61

00000032 <__do_copy_data>:
  32:	10 e0       	ldi	r17, 0x00	; 0
  34:	a0 e6       	ldi	r26, 0x60	; 96
  36:	b0 e0       	ldi	r27, 0x00	; 0
  38:	ec e5       	ldi	r30, 0x5C	; 92
  3a:	fb e0       	ldi	r31, 0x0B	; 11
  3c:	02 c0       	rjmp	.+4      	; 0x42 <__SREG__+0x3>
  3e:	05 90       	lpm	r0, Z+
  40:	0d 92       	st	X+, r0
  42:	a2 37       	cpi	r26, 0x72	; 114
  44:	b1 07       	cpc	r27, r17
  46:	d9 f7       	brne	.-10     	; 0x3e <__SP_H__>

00000048 <__do_clear_bss>:
  48:	10 e0       	ldi	r17, 0x00	; 0
  4a:	a2 e7       	ldi	r26, 0x72	; 114
  4c:	b0 e0       	ldi	r27, 0x00	; 0
  4e:	01 c0       	rjmp	.+2      	; 0x52 <.do_clear_bss_start>

00000050 <.do_clear_bss_loop>:
  50:	1d 92       	st	X+, r1

00000052 <.do_clear_bss_start>:
  52:	a5 37       	cpi	r26, 0x75	; 117
  54:	b1 07       	cpc	r27, r17
  56:	e1 f7       	brne	.-8      	; 0x50 <.do_clear_bss_loop>
  58:	20 d2       	rcall	.+1088   	; 0x49a <main>
  5a:	7e c5       	rjmp	.+2812   	; 0xb58 <_exit>

0000005c <__bad_interrupt>:
  5c:	d1 cf       	rjmp	.-94     	; 0x0 <__vectors>

0000005e <Display.clone.0>:
	}
	

	}
}
uint8_t Display(uint8_t modus, uint8_t status){
  5e:	af 92       	push	r10
  60:	bf 92       	push	r11
  62:	df 92       	push	r13
  64:	ef 92       	push	r14
  66:	ff 92       	push	r15
  68:	0f 93       	push	r16
  6a:	1f 93       	push	r17
  6c:	df 93       	push	r29
  6e:	cf 93       	push	r28
  70:	cd b7       	in	r28, 0x3d	; 61
  72:	de b7       	in	r29, 0x3e	; 62
  74:	64 97       	sbiw	r28, 0x14	; 20
  76:	0f b6       	in	r0, 0x3f	; 63
  78:	f8 94       	cli
  7a:	de bf       	out	0x3e, r29	; 62
  7c:	0f be       	out	0x3f, r0	; 63
  7e:	cd bf       	out	0x3d, r28	; 61
  80:	d8 2e       	mov	r13, r24
	
uint16_t zeig;	
char Buffer[20];

if (PINB & (1<<PB2)) //Displaybeleuchtung an
  82:	b2 9b       	sbis	0x16, 2	; 22
  84:	73 c0       	rjmp	.+230    	; 0x16c <Display.clone.0+0x10e>
			{
				if (!status){
  86:	88 23       	and	r24, r24
  88:	09 f4       	brne	.+2      	; 0x8c <Display.clone.0+0x2e>
  8a:	76 c0       	rjmp	.+236    	; 0x178 <Display.clone.0+0x11a>
				lcd_command(LCD_SET_DISPLAY | LCD_DISPLAY_ON);
				status=1;
				}
			
	switch (modus){
		case 0:		lcd_setcursor(0,1);
  8c:	80 e0       	ldi	r24, 0x00	; 0
  8e:	61 e0       	ldi	r22, 0x01	; 1
  90:	8b d4       	rcall	.+2326   	; 0x9a8 <lcd_setcursor>
					lcd_string( "U_Sol" );
  92:	80 e6       	ldi	r24, 0x60	; 96
  94:	90 e0       	ldi	r25, 0x00	; 0
  96:	b9 d4       	rcall	.+2418   	; 0xa0a <lcd_string>
				
					lcd_setcursor(9,1);
  98:	89 e0       	ldi	r24, 0x09	; 9
  9a:	61 e0       	ldi	r22, 0x01	; 1
  9c:	85 d4       	rcall	.+2314   	; 0x9a8 <lcd_setcursor>
					lcd_string( "U_Bat" );
  9e:	86 e6       	ldi	r24, 0x66	; 102
  a0:	90 e0       	ldi	r25, 0x00	; 0
  a2:	b3 d4       	rcall	.+2406   	; 0xa0a <lcd_string>
			
					zeig=ADC_Read(0)*25;
  a4:	80 e0       	ldi	r24, 0x00	; 0
  a6:	26 d3       	rcall	.+1612   	; 0x6f4 <ADC_Read>
  a8:	8c 01       	movw	r16, r24
  aa:	00 0f       	add	r16, r16
  ac:	11 1f       	adc	r17, r17
  ae:	08 0f       	add	r16, r24
  b0:	19 1f       	adc	r17, r25
  b2:	00 0f       	add	r16, r16
  b4:	11 1f       	adc	r17, r17
  b6:	00 0f       	add	r16, r16
  b8:	11 1f       	adc	r17, r17
  ba:	00 0f       	add	r16, r16
  bc:	11 1f       	adc	r17, r17
  be:	08 0f       	add	r16, r24
  c0:	19 1f       	adc	r17, r25
			
					lcd_setcursor(0,2);
  c2:	80 e0       	ldi	r24, 0x00	; 0
  c4:	62 e0       	ldi	r22, 0x02	; 2
  c6:	70 d4       	rcall	.+2272   	; 0x9a8 <lcd_setcursor>
					itoa( (zeig/1000), Buffer, 10 );
  c8:	48 ee       	ldi	r20, 0xE8	; 232
  ca:	a4 2e       	mov	r10, r20
  cc:	43 e0       	ldi	r20, 0x03	; 3
  ce:	b4 2e       	mov	r11, r20
  d0:	c8 01       	movw	r24, r16
  d2:	b5 01       	movw	r22, r10
  d4:	c1 d4       	rcall	.+2434   	; 0xa58 <__udivmodhi4>
  d6:	7c 01       	movw	r14, r24
  d8:	cb 01       	movw	r24, r22
  da:	8e 01       	movw	r16, r28
  dc:	0f 5f       	subi	r16, 0xFF	; 255
  de:	1f 4f       	sbci	r17, 0xFF	; 255
  e0:	b8 01       	movw	r22, r16
  e2:	4a e0       	ldi	r20, 0x0A	; 10
  e4:	50 e0       	ldi	r21, 0x00	; 0
  e6:	09 d5       	rcall	.+2578   	; 0xafa <itoa>
					lcd_string( Buffer );
  e8:	c8 01       	movw	r24, r16
  ea:	8f d4       	rcall	.+2334   	; 0xa0a <lcd_string>
					lcd_data(0x2c);
  ec:	8c e2       	ldi	r24, 0x2C	; 44
  ee:	e2 d3       	rcall	.+1988   	; 0x8b4 <lcd_data>
					itoa( (zeig-((zeig/1000)*1000)), Buffer, 10 );
  f0:	c7 01       	movw	r24, r14
  f2:	b8 01       	movw	r22, r16
  f4:	4a e0       	ldi	r20, 0x0A	; 10
  f6:	50 e0       	ldi	r21, 0x00	; 0
  f8:	00 d5       	rcall	.+2560   	; 0xafa <itoa>
					lcd_string( Buffer );
  fa:	c8 01       	movw	r24, r16
  fc:	86 d4       	rcall	.+2316   	; 0xa0a <lcd_string>

					zeig=ADC_Read(2)*25;
  fe:	82 e0       	ldi	r24, 0x02	; 2
 100:	f9 d2       	rcall	.+1522   	; 0x6f4 <ADC_Read>
 102:	7c 01       	movw	r14, r24
 104:	ee 0c       	add	r14, r14
 106:	ff 1c       	adc	r15, r15
 108:	e8 0e       	add	r14, r24
 10a:	f9 1e       	adc	r15, r25
 10c:	ee 0c       	add	r14, r14
 10e:	ff 1c       	adc	r15, r15
 110:	ee 0c       	add	r14, r14
 112:	ff 1c       	adc	r15, r15
 114:	ee 0c       	add	r14, r14
 116:	ff 1c       	adc	r15, r15
 118:	e8 0e       	add	r14, r24
 11a:	f9 1e       	adc	r15, r25
			
					lcd_setcursor(9,2);
 11c:	89 e0       	ldi	r24, 0x09	; 9
 11e:	62 e0       	ldi	r22, 0x02	; 2
 120:	43 d4       	rcall	.+2182   	; 0x9a8 <lcd_setcursor>
					itoa( (zeig/1000), Buffer, 10 );
 122:	c7 01       	movw	r24, r14
 124:	b5 01       	movw	r22, r10
 126:	98 d4       	rcall	.+2352   	; 0xa58 <__udivmodhi4>
 128:	7c 01       	movw	r14, r24
 12a:	cb 01       	movw	r24, r22
 12c:	b8 01       	movw	r22, r16
 12e:	4a e0       	ldi	r20, 0x0A	; 10
 130:	50 e0       	ldi	r21, 0x00	; 0
 132:	e3 d4       	rcall	.+2502   	; 0xafa <itoa>
					lcd_string( Buffer );
 134:	c8 01       	movw	r24, r16
 136:	69 d4       	rcall	.+2258   	; 0xa0a <lcd_string>
					lcd_data(0x2c);
 138:	8c e2       	ldi	r24, 0x2C	; 44
 13a:	bc d3       	rcall	.+1912   	; 0x8b4 <lcd_data>
					itoa( (zeig-((zeig/1000)*1000)), Buffer, 10 );
 13c:	c7 01       	movw	r24, r14
 13e:	b8 01       	movw	r22, r16
 140:	4a e0       	ldi	r20, 0x0A	; 10
 142:	50 e0       	ldi	r21, 0x00	; 0
 144:	da d4       	rcall	.+2484   	; 0xafa <itoa>
					lcd_string( Buffer );
 146:	c8 01       	movw	r24, r16
 148:	60 d4       	rcall	.+2240   	; 0xa0a <lcd_string>
				status=0;
			}
			
			}
	return status;
	}
 14a:	8d 2d       	mov	r24, r13
 14c:	64 96       	adiw	r28, 0x14	; 20
 14e:	0f b6       	in	r0, 0x3f	; 63
 150:	f8 94       	cli
 152:	de bf       	out	0x3e, r29	; 62
 154:	0f be       	out	0x3f, r0	; 63
 156:	cd bf       	out	0x3d, r28	; 61
 158:	cf 91       	pop	r28
 15a:	df 91       	pop	r29
 15c:	1f 91       	pop	r17
 15e:	0f 91       	pop	r16
 160:	ff 90       	pop	r15
 162:	ef 90       	pop	r14
 164:	df 90       	pop	r13
 166:	bf 90       	pop	r11
 168:	af 90       	pop	r10
 16a:	08 95       	ret
				}
			}			
									
else //Displaybeleuchtung aus
			{
				if (status){
 16c:	88 23       	and	r24, r24
 16e:	69 f3       	breq	.-38     	; 0x14a <Display.clone.0+0xec>
				lcd_command(LCD_SET_DISPLAY | LCD_DISPLAY_OFF);
 170:	88 e0       	ldi	r24, 0x08	; 8
 172:	bf d3       	rcall	.+1918   	; 0x8f2 <lcd_command>
				status=0;
 174:	dd 24       	eor	r13, r13
 176:	e9 cf       	rjmp	.-46     	; 0x14a <Display.clone.0+0xec>
char Buffer[20];

if (PINB & (1<<PB2)) //Displaybeleuchtung an
			{
				if (!status){
				lcd_command(LCD_SET_DISPLAY | LCD_DISPLAY_ON);
 178:	8c e0       	ldi	r24, 0x0C	; 12
 17a:	bb d3       	rcall	.+1910   	; 0x8f2 <lcd_command>
				status=1;
 17c:	dd 24       	eor	r13, r13
 17e:	d3 94       	inc	r13
 180:	85 cf       	rjmp	.-246    	; 0x8c <Display.clone.0+0x2e>

00000182 <Display>:
	}
	

	}
}
uint8_t Display(uint8_t modus, uint8_t status){
 182:	cf 92       	push	r12
 184:	df 92       	push	r13
 186:	ef 92       	push	r14
 188:	ff 92       	push	r15
 18a:	0f 93       	push	r16
 18c:	1f 93       	push	r17
 18e:	df 93       	push	r29
 190:	cf 93       	push	r28
 192:	cd b7       	in	r28, 0x3d	; 61
 194:	de b7       	in	r29, 0x3e	; 62
 196:	65 97       	sbiw	r28, 0x15	; 21
 198:	0f b6       	in	r0, 0x3f	; 63
 19a:	f8 94       	cli
 19c:	de bf       	out	0x3e, r29	; 62
 19e:	0f be       	out	0x3f, r0	; 63
 1a0:	cd bf       	out	0x3d, r28	; 61
 1a2:	08 2f       	mov	r16, r24
 1a4:	26 2f       	mov	r18, r22
	
uint16_t zeig;	
char Buffer[20];

if (PINB & (1<<PB2)) //Displaybeleuchtung an
 1a6:	b2 9b       	sbis	0x16, 2	; 22
 1a8:	77 c0       	rjmp	.+238    	; 0x298 <Display+0x116>
			{
				if (!status){
 1aa:	66 23       	and	r22, r22
 1ac:	09 f4       	brne	.+2      	; 0x1b0 <Display+0x2e>
 1ae:	7a c0       	rjmp	.+244    	; 0x2a4 <Display+0x122>
				lcd_command(LCD_SET_DISPLAY | LCD_DISPLAY_ON);
				status=1;
				}
			
	switch (modus){
 1b0:	00 23       	and	r16, r16
 1b2:	09 f0       	breq	.+2      	; 0x1b6 <Display+0x34>
 1b4:	61 c0       	rjmp	.+194    	; 0x278 <Display+0xf6>
		case 0:		lcd_setcursor(0,1);
 1b6:	80 e0       	ldi	r24, 0x00	; 0
 1b8:	61 e0       	ldi	r22, 0x01	; 1
 1ba:	2d 8b       	std	Y+21, r18	; 0x15
 1bc:	f5 d3       	rcall	.+2026   	; 0x9a8 <lcd_setcursor>
					lcd_string( "U_Sol" );
 1be:	80 e6       	ldi	r24, 0x60	; 96
 1c0:	90 e0       	ldi	r25, 0x00	; 0
 1c2:	23 d4       	rcall	.+2118   	; 0xa0a <lcd_string>
				
					lcd_setcursor(9,1);
 1c4:	89 e0       	ldi	r24, 0x09	; 9
 1c6:	61 e0       	ldi	r22, 0x01	; 1
 1c8:	ef d3       	rcall	.+2014   	; 0x9a8 <lcd_setcursor>
					lcd_string( "U_Bat" );
 1ca:	86 e6       	ldi	r24, 0x66	; 102
 1cc:	90 e0       	ldi	r25, 0x00	; 0
 1ce:	1d d4       	rcall	.+2106   	; 0xa0a <lcd_string>
			
					zeig=ADC_Read(0)*25;
 1d0:	80 e0       	ldi	r24, 0x00	; 0
 1d2:	90 d2       	rcall	.+1312   	; 0x6f4 <ADC_Read>
 1d4:	8c 01       	movw	r16, r24
 1d6:	00 0f       	add	r16, r16
 1d8:	11 1f       	adc	r17, r17
 1da:	08 0f       	add	r16, r24
 1dc:	19 1f       	adc	r17, r25
 1de:	00 0f       	add	r16, r16
 1e0:	11 1f       	adc	r17, r17
 1e2:	00 0f       	add	r16, r16
 1e4:	11 1f       	adc	r17, r17
 1e6:	00 0f       	add	r16, r16
 1e8:	11 1f       	adc	r17, r17
 1ea:	08 0f       	add	r16, r24
 1ec:	19 1f       	adc	r17, r25
			
					lcd_setcursor(0,2);
 1ee:	80 e0       	ldi	r24, 0x00	; 0
 1f0:	62 e0       	ldi	r22, 0x02	; 2
 1f2:	da d3       	rcall	.+1972   	; 0x9a8 <lcd_setcursor>
					itoa( (zeig/1000), Buffer, 10 );
 1f4:	f8 ee       	ldi	r31, 0xE8	; 232
 1f6:	cf 2e       	mov	r12, r31
 1f8:	f3 e0       	ldi	r31, 0x03	; 3
 1fa:	df 2e       	mov	r13, r31
 1fc:	c8 01       	movw	r24, r16
 1fe:	b6 01       	movw	r22, r12
 200:	2b d4       	rcall	.+2134   	; 0xa58 <__udivmodhi4>
 202:	7c 01       	movw	r14, r24
 204:	cb 01       	movw	r24, r22
 206:	8e 01       	movw	r16, r28
 208:	0f 5f       	subi	r16, 0xFF	; 255
 20a:	1f 4f       	sbci	r17, 0xFF	; 255
 20c:	b8 01       	movw	r22, r16
 20e:	4a e0       	ldi	r20, 0x0A	; 10
 210:	50 e0       	ldi	r21, 0x00	; 0
 212:	73 d4       	rcall	.+2278   	; 0xafa <itoa>
					lcd_string( Buffer );
 214:	c8 01       	movw	r24, r16
 216:	f9 d3       	rcall	.+2034   	; 0xa0a <lcd_string>
					lcd_data(0x2c);
 218:	8c e2       	ldi	r24, 0x2C	; 44
 21a:	4c d3       	rcall	.+1688   	; 0x8b4 <lcd_data>
					itoa( (zeig-((zeig/1000)*1000)), Buffer, 10 );
 21c:	c7 01       	movw	r24, r14
 21e:	b8 01       	movw	r22, r16
 220:	4a e0       	ldi	r20, 0x0A	; 10
 222:	50 e0       	ldi	r21, 0x00	; 0
 224:	6a d4       	rcall	.+2260   	; 0xafa <itoa>
					lcd_string( Buffer );
 226:	c8 01       	movw	r24, r16
 228:	f0 d3       	rcall	.+2016   	; 0xa0a <lcd_string>

					zeig=ADC_Read(2)*25;
 22a:	82 e0       	ldi	r24, 0x02	; 2
 22c:	63 d2       	rcall	.+1222   	; 0x6f4 <ADC_Read>
 22e:	7c 01       	movw	r14, r24
 230:	ee 0c       	add	r14, r14
 232:	ff 1c       	adc	r15, r15
 234:	e8 0e       	add	r14, r24
 236:	f9 1e       	adc	r15, r25
 238:	ee 0c       	add	r14, r14
 23a:	ff 1c       	adc	r15, r15
 23c:	ee 0c       	add	r14, r14
 23e:	ff 1c       	adc	r15, r15
 240:	ee 0c       	add	r14, r14
 242:	ff 1c       	adc	r15, r15
 244:	e8 0e       	add	r14, r24
 246:	f9 1e       	adc	r15, r25
			
					lcd_setcursor(9,2);
 248:	89 e0       	ldi	r24, 0x09	; 9
 24a:	62 e0       	ldi	r22, 0x02	; 2
 24c:	ad d3       	rcall	.+1882   	; 0x9a8 <lcd_setcursor>
					itoa( (zeig/1000), Buffer, 10 );
 24e:	c7 01       	movw	r24, r14
 250:	b6 01       	movw	r22, r12
 252:	02 d4       	rcall	.+2052   	; 0xa58 <__udivmodhi4>
 254:	7c 01       	movw	r14, r24
 256:	cb 01       	movw	r24, r22
 258:	b8 01       	movw	r22, r16
 25a:	4a e0       	ldi	r20, 0x0A	; 10
 25c:	50 e0       	ldi	r21, 0x00	; 0
 25e:	4d d4       	rcall	.+2202   	; 0xafa <itoa>
					lcd_string( Buffer );
 260:	c8 01       	movw	r24, r16
 262:	d3 d3       	rcall	.+1958   	; 0xa0a <lcd_string>
					lcd_data(0x2c);
 264:	8c e2       	ldi	r24, 0x2C	; 44
 266:	26 d3       	rcall	.+1612   	; 0x8b4 <lcd_data>
					itoa( (zeig-((zeig/1000)*1000)), Buffer, 10 );
 268:	c7 01       	movw	r24, r14
 26a:	b8 01       	movw	r22, r16
 26c:	4a e0       	ldi	r20, 0x0A	; 10
 26e:	50 e0       	ldi	r21, 0x00	; 0
 270:	44 d4       	rcall	.+2184   	; 0xafa <itoa>
					lcd_string( Buffer );
 272:	c8 01       	movw	r24, r16
 274:	ca d3       	rcall	.+1940   	; 0xa0a <lcd_string>
				break;
 276:	2d 89       	ldd	r18, Y+21	; 0x15
				status=0;
			}
			
			}
	return status;
	}
 278:	82 2f       	mov	r24, r18
 27a:	65 96       	adiw	r28, 0x15	; 21
 27c:	0f b6       	in	r0, 0x3f	; 63
 27e:	f8 94       	cli
 280:	de bf       	out	0x3e, r29	; 62
 282:	0f be       	out	0x3f, r0	; 63
 284:	cd bf       	out	0x3d, r28	; 61
 286:	cf 91       	pop	r28
 288:	df 91       	pop	r29
 28a:	1f 91       	pop	r17
 28c:	0f 91       	pop	r16
 28e:	ff 90       	pop	r15
 290:	ef 90       	pop	r14
 292:	df 90       	pop	r13
 294:	cf 90       	pop	r12
 296:	08 95       	ret
				}
			}			
									
else //Displaybeleuchtung aus
			{
				if (status){
 298:	66 23       	and	r22, r22
 29a:	71 f3       	breq	.-36     	; 0x278 <Display+0xf6>
				lcd_command(LCD_SET_DISPLAY | LCD_DISPLAY_OFF);
 29c:	88 e0       	ldi	r24, 0x08	; 8
 29e:	29 d3       	rcall	.+1618   	; 0x8f2 <lcd_command>
				status=0;
 2a0:	20 e0       	ldi	r18, 0x00	; 0
 2a2:	ea cf       	rjmp	.-44     	; 0x278 <Display+0xf6>
char Buffer[20];

if (PINB & (1<<PB2)) //Displaybeleuchtung an
			{
				if (!status){
				lcd_command(LCD_SET_DISPLAY | LCD_DISPLAY_ON);
 2a4:	8c e0       	ldi	r24, 0x0C	; 12
 2a6:	25 d3       	rcall	.+1610   	; 0x8f2 <lcd_command>
				status=1;
 2a8:	21 e0       	ldi	r18, 0x01	; 1
				}
			
	switch (modus){
 2aa:	00 23       	and	r16, r16
 2ac:	29 f7       	brne	.-54     	; 0x278 <Display+0xf6>
 2ae:	83 cf       	rjmp	.-250    	; 0x1b6 <Display+0x34>

000002b0 <__vector_9>:
wird aufgerufen, wenn TCNT0 von
255 auf 0 wechselt (256 Schritte),
d.h. ca. alle (21.85) ms
*/
ISR(TIMER0_OVF_vect)
{
 2b0:	1f 92       	push	r1
 2b2:	0f 92       	push	r0
 2b4:	0f b6       	in	r0, 0x3f	; 63
 2b6:	0f 92       	push	r0
 2b8:	11 24       	eor	r1, r1
 2ba:	8f 93       	push	r24
  	if (tCounterb==460) //~10 sec
	{tCounterb=0;
	}
	tCounterb++;
 2bc:	80 91 74 00 	lds	r24, 0x0074
 2c0:	8f 5f       	subi	r24, 0xFF	; 255
 2c2:	80 93 74 00 	sts	0x0074, r24
	tCounter=tCounterb;
 2c6:	80 93 72 00 	sts	0x0072, r24
	GIAF|=(1<<0)|(1<<1);
 2ca:	80 91 73 00 	lds	r24, 0x0073
 2ce:	83 60       	ori	r24, 0x03	; 3
 2d0:	80 93 73 00 	sts	0x0073, r24
	}
 2d4:	8f 91       	pop	r24
 2d6:	0f 90       	pop	r0
 2d8:	0f be       	out	0x3f, r0	; 63
 2da:	0f 90       	pop	r0
 2dc:	1f 90       	pop	r1
 2de:	18 95       	reti

000002e0 <sol_pwr>:
	Bestimmung der Eingangsleistung in Form des 32-bit-ï¿½quivalents.
	Die Eingangsvariablen (werden aus Analogwerten gelesen) haben ein 10 bit-Format.
	Diese werden einfach multipliziert, da keine zeit fï¿½r Flieï¿½kommaberechnungen 
	verschwendet werden soll. 
*/
uint32_t sol_pwr(void){
 2e0:	cf 93       	push	r28
 2e2:	df 93       	push	r29
	uint16_t sol_u,sol_i;
	uint32_t pwr;
	
	sol_u=ADC_Read(0);
 2e4:	80 e0       	ldi	r24, 0x00	; 0
 2e6:	06 d2       	rcall	.+1036   	; 0x6f4 <ADC_Read>
 2e8:	ec 01       	movw	r28, r24
	sol_i=ADC_Read(1);
 2ea:	81 e0       	ldi	r24, 0x01	; 1
 2ec:	03 d2       	rcall	.+1030   	; 0x6f4 <ADC_Read>
	pwr=sol_u*sol_i;
 2ee:	9c 01       	movw	r18, r24
 2f0:	2c 9f       	mul	r18, r28
 2f2:	c0 01       	movw	r24, r0
 2f4:	2d 9f       	mul	r18, r29
 2f6:	90 0d       	add	r25, r0
 2f8:	3c 9f       	mul	r19, r28
 2fa:	90 0d       	add	r25, r0
 2fc:	11 24       	eor	r1, r1
	return pwr;	
	}
 2fe:	bc 01       	movw	r22, r24
 300:	80 e0       	ldi	r24, 0x00	; 0
 302:	90 e0       	ldi	r25, 0x00	; 0
 304:	df 91       	pop	r29
 306:	cf 91       	pop	r28
 308:	08 95       	ret

0000030a <PPT>:
	Funktion zur Ermittlung des Spitzenleistungswertes.
	Wenn mehr Leistung umgesetzt werden kann, indem die PWM grï¿½ï¿½er gewï¿½hlt wird, dann
	wird der Punkt weiter oben, ansonsten weiter unten gesucht wenn der Spitzenwert bereits eingestellt ist,
	dann wird nichts getan. 
*/	
void PPT(void){
 30a:	6f 92       	push	r6
 30c:	7f 92       	push	r7
 30e:	8f 92       	push	r8
 310:	9f 92       	push	r9
 312:	af 92       	push	r10
 314:	bf 92       	push	r11
 316:	cf 92       	push	r12
 318:	df 92       	push	r13
 31a:	ef 92       	push	r14
 31c:	ff 92       	push	r15
 31e:	0f 93       	push	r16
 320:	1f 93       	push	r17
 322:	cf 93       	push	r28
 324:	df 93       	push	r29
*/
uint32_t sol_pwr(void){
	uint16_t sol_u,sol_i;
	uint32_t pwr;
	
	sol_u=ADC_Read(0);
 326:	80 e0       	ldi	r24, 0x00	; 0
 328:	e5 d1       	rcall	.+970    	; 0x6f4 <ADC_Read>
 32a:	ec 01       	movw	r28, r24
	sol_i=ADC_Read(1);
 32c:	81 e0       	ldi	r24, 0x01	; 1
 32e:	e2 d1       	rcall	.+964    	; 0x6f4 <ADC_Read>
	pwr=sol_u*sol_i;
 330:	8c 9f       	mul	r24, r28
 332:	30 01       	movw	r6, r0
 334:	8d 9f       	mul	r24, r29
 336:	70 0c       	add	r7, r0
 338:	9c 9f       	mul	r25, r28
 33a:	70 0c       	add	r7, r0
 33c:	11 24       	eor	r1, r1
 33e:	88 24       	eor	r8, r8
 340:	99 24       	eor	r9, r9
	uint32_t pwr_alt,pwr_p,pwr_m;
	
	pwr_alt=sol_pwr();	
	
	/* Leistung bei nem grï¿½ï¿½eren PWM-Schritt berechnen */ 
	if(PWM_PWR<=253) PWM_PWR++;	
 342:	83 b5       	in	r24, 0x23	; 35
 344:	8e 3f       	cpi	r24, 0xFE	; 254
 346:	18 f4       	brcc	.+6      	; 0x34e <PPT+0x44>
 348:	83 b5       	in	r24, 0x23	; 35
 34a:	8f 5f       	subi	r24, 0xFF	; 255
 34c:	83 bd       	out	0x23, r24	; 35
	#else
		//round up by default
		__ticks_dc = (uint32_t)(ceil(fabs(__tmp)));
	#endif

	__builtin_avr_delay_cycles(__ticks_dc);
 34e:	8f e2       	ldi	r24, 0x2F	; 47
 350:	95 e7       	ldi	r25, 0x75	; 117
 352:	01 97       	sbiw	r24, 0x01	; 1
 354:	f1 f7       	brne	.-4      	; 0x352 <PPT+0x48>
 356:	00 c0       	rjmp	.+0      	; 0x358 <PPT+0x4e>
 358:	00 00       	nop
*/
uint32_t sol_pwr(void){
	uint16_t sol_u,sol_i;
	uint32_t pwr;
	
	sol_u=ADC_Read(0);
 35a:	80 e0       	ldi	r24, 0x00	; 0
 35c:	cb d1       	rcall	.+918    	; 0x6f4 <ADC_Read>
 35e:	ec 01       	movw	r28, r24
	sol_i=ADC_Read(1);
 360:	81 e0       	ldi	r24, 0x01	; 1
 362:	c8 d1       	rcall	.+912    	; 0x6f4 <ADC_Read>
	pwr=sol_u*sol_i;
 364:	8c 9f       	mul	r24, r28
 366:	70 01       	movw	r14, r0
 368:	8d 9f       	mul	r24, r29
 36a:	f0 0c       	add	r15, r0
 36c:	9c 9f       	mul	r25, r28
 36e:	f0 0c       	add	r15, r0
 370:	11 24       	eor	r1, r1
 372:	00 e0       	ldi	r16, 0x00	; 0
 374:	10 e0       	ldi	r17, 0x00	; 0
	*/
	_delay_ms(10);
	pwr_p=sol_pwr();
	
	/* Leistung bei nem kleineren PWM-Schritt berechnen */
	if(PWM_PWR>=3) PWM_PWR-=2;
 376:	83 b5       	in	r24, 0x23	; 35
 378:	83 30       	cpi	r24, 0x03	; 3
 37a:	18 f0       	brcs	.+6      	; 0x382 <PPT+0x78>
 37c:	83 b5       	in	r24, 0x23	; 35
 37e:	82 50       	subi	r24, 0x02	; 2
 380:	83 bd       	out	0x23, r24	; 35
 382:	8f e2       	ldi	r24, 0x2F	; 47
 384:	95 e7       	ldi	r25, 0x75	; 117
 386:	01 97       	sbiw	r24, 0x01	; 1
 388:	f1 f7       	brne	.-4      	; 0x386 <PPT+0x7c>
 38a:	00 c0       	rjmp	.+0      	; 0x38c <PPT+0x82>
 38c:	00 00       	nop
*/
uint32_t sol_pwr(void){
	uint16_t sol_u,sol_i;
	uint32_t pwr;
	
	sol_u=ADC_Read(0);
 38e:	80 e0       	ldi	r24, 0x00	; 0
 390:	b1 d1       	rcall	.+866    	; 0x6f4 <ADC_Read>
 392:	ec 01       	movw	r28, r24
	sol_i=ADC_Read(1);
 394:	81 e0       	ldi	r24, 0x01	; 1
 396:	ae d1       	rcall	.+860    	; 0x6f4 <ADC_Read>
	pwr=sol_u*sol_i;
 398:	8c 9f       	mul	r24, r28
 39a:	50 01       	movw	r10, r0
 39c:	8d 9f       	mul	r24, r29
 39e:	b0 0c       	add	r11, r0
 3a0:	9c 9f       	mul	r25, r28
 3a2:	b0 0c       	add	r11, r0
 3a4:	11 24       	eor	r1, r1
 3a6:	cc 24       	eor	r12, r12
 3a8:	dd 24       	eor	r13, r13
		}
	*/
	_delay_ms(10);
	pwr_m=sol_pwr();
	
	if ((pwr_p>pwr_alt)&&(pwr_p>=pwr_m))
 3aa:	6e 14       	cp	r6, r14
 3ac:	7f 04       	cpc	r7, r15
 3ae:	80 06       	cpc	r8, r16
 3b0:	91 06       	cpc	r9, r17
 3b2:	30 f4       	brcc	.+12     	; 0x3c0 <PPT+0xb6>
 3b4:	ea 14       	cp	r14, r10
 3b6:	fb 04       	cpc	r15, r11
 3b8:	0c 05       	cpc	r16, r12
 3ba:	1d 05       	cpc	r17, r13
 3bc:	08 f0       	brcs	.+2      	; 0x3c0 <PPT+0xb6>
 3be:	42 c0       	rjmp	.+132    	; 0x444 <PPT+0x13a>
	{
		PPT_p(pwr_p);
	}
	else if ((pwr_m>pwr_alt)&&(pwr_m>pwr_p))
 3c0:	6a 14       	cp	r6, r10
 3c2:	7b 04       	cpc	r7, r11
 3c4:	8c 04       	cpc	r8, r12
 3c6:	9d 04       	cpc	r9, r13
 3c8:	90 f0       	brcs	.+36     	; 0x3ee <PPT+0xe4>
	{
		PPT_m(pwr_m);
	}
	else {
		PWM_PWR++;
 3ca:	83 b5       	in	r24, 0x23	; 35
 3cc:	8f 5f       	subi	r24, 0xFF	; 255
 3ce:	83 bd       	out	0x23, r24	; 35
		return;
	}		
}
 3d0:	df 91       	pop	r29
 3d2:	cf 91       	pop	r28
 3d4:	1f 91       	pop	r17
 3d6:	0f 91       	pop	r16
 3d8:	ff 90       	pop	r15
 3da:	ef 90       	pop	r14
 3dc:	df 90       	pop	r13
 3de:	cf 90       	pop	r12
 3e0:	bf 90       	pop	r11
 3e2:	af 90       	pop	r10
 3e4:	9f 90       	pop	r9
 3e6:	8f 90       	pop	r8
 3e8:	7f 90       	pop	r7
 3ea:	6f 90       	pop	r6
 3ec:	08 95       	ret
	
	if ((pwr_p>pwr_alt)&&(pwr_p>=pwr_m))
	{
		PPT_p(pwr_p);
	}
	else if ((pwr_m>pwr_alt)&&(pwr_m>pwr_p))
 3ee:	ea 14       	cp	r14, r10
 3f0:	fb 04       	cpc	r15, r11
 3f2:	0c 05       	cpc	r16, r12
 3f4:	1d 05       	cpc	r17, r13
 3f6:	48 f7       	brcc	.-46     	; 0x3ca <PPT+0xc0>
	{	
		alt=neu;
		_delay_ms(20);
		if(PWM_PWR>=2) PWM_PWR--;	
		else {
		PWM_PWR=1;
 3f8:	11 e0       	ldi	r17, 0x01	; 1
 3fa:	19 c0       	rjmp	.+50     	; 0x42e <PPT+0x124>

	do 
	{	
		alt=neu;
		_delay_ms(20);
		if(PWM_PWR>=2) PWM_PWR--;	
 3fc:	83 b5       	in	r24, 0x23	; 35
 3fe:	81 50       	subi	r24, 0x01	; 1
 400:	83 bd       	out	0x23, r24	; 35
*/
uint32_t sol_pwr(void){
	uint16_t sol_u,sol_i;
	uint32_t pwr;
	
	sol_u=ADC_Read(0);
 402:	80 e0       	ldi	r24, 0x00	; 0
 404:	77 d1       	rcall	.+750    	; 0x6f4 <ADC_Read>
 406:	ec 01       	movw	r28, r24
	sol_i=ADC_Read(1);
 408:	81 e0       	ldi	r24, 0x01	; 1
 40a:	74 d1       	rcall	.+744    	; 0x6f4 <ADC_Read>
	pwr=sol_u*sol_i;
 40c:	9c 01       	movw	r18, r24
 40e:	2c 9f       	mul	r18, r28
 410:	c0 01       	movw	r24, r0
 412:	2d 9f       	mul	r18, r29
 414:	90 0d       	add	r25, r0
 416:	3c 9f       	mul	r19, r28
 418:	90 0d       	add	r25, r0
 41a:	11 24       	eor	r1, r1
 41c:	a0 e0       	ldi	r26, 0x00	; 0
 41e:	b0 e0       	ldi	r27, 0x00	; 0
		if(PWM_PWR>=2) PWM_PWR--;	
		else {
		PWM_PWR=1;
		}
		neu=sol_pwr();
	} while (neu>=alt);
 420:	8a 15       	cp	r24, r10
 422:	9b 05       	cpc	r25, r11
 424:	ac 05       	cpc	r26, r12
 426:	bd 05       	cpc	r27, r13
 428:	80 f2       	brcs	.-96     	; 0x3ca <PPT+0xc0>
		_delay_ms(20);
		if(PWM_PWR>=2) PWM_PWR--;	
		else {
		PWM_PWR=1;
		}
		neu=sol_pwr();
 42a:	5c 01       	movw	r10, r24
 42c:	6d 01       	movw	r12, r26
 42e:	8f e5       	ldi	r24, 0x5F	; 95
 430:	9a ee       	ldi	r25, 0xEA	; 234
 432:	01 97       	sbiw	r24, 0x01	; 1
 434:	f1 f7       	brne	.-4      	; 0x432 <PPT+0x128>
 436:	00 c0       	rjmp	.+0      	; 0x438 <PPT+0x12e>
 438:	00 00       	nop

	do 
	{	
		alt=neu;
		_delay_ms(20);
		if(PWM_PWR>=2) PWM_PWR--;	
 43a:	83 b5       	in	r24, 0x23	; 35
 43c:	82 30       	cpi	r24, 0x02	; 2
 43e:	f0 f6       	brcc	.-68     	; 0x3fc <PPT+0xf2>
		else {
		PWM_PWR=1;
 440:	13 bd       	out	0x23, r17	; 35
 442:	df cf       	rjmp	.-66     	; 0x402 <PPT+0xf8>
	{	
		alt=neu;
		_delay_ms(20);
		if(PWM_PWR<=253) PWM_PWR++;	
		else {
		PWM_PWR=254;
 444:	8e ef       	ldi	r24, 0xFE	; 254
 446:	a8 2e       	mov	r10, r24
 448:	19 c0       	rjmp	.+50     	; 0x47c <__stack+0x1d>

	do 
	{	
		alt=neu;
		_delay_ms(20);
		if(PWM_PWR<=253) PWM_PWR++;	
 44a:	83 b5       	in	r24, 0x23	; 35
 44c:	8f 5f       	subi	r24, 0xFF	; 255
 44e:	83 bd       	out	0x23, r24	; 35
*/
uint32_t sol_pwr(void){
	uint16_t sol_u,sol_i;
	uint32_t pwr;
	
	sol_u=ADC_Read(0);
 450:	80 e0       	ldi	r24, 0x00	; 0
 452:	50 d1       	rcall	.+672    	; 0x6f4 <ADC_Read>
 454:	ec 01       	movw	r28, r24
	sol_i=ADC_Read(1);
 456:	81 e0       	ldi	r24, 0x01	; 1
 458:	4d d1       	rcall	.+666    	; 0x6f4 <ADC_Read>
	pwr=sol_u*sol_i;
 45a:	9c 01       	movw	r18, r24
 45c:	2c 9f       	mul	r18, r28
 45e:	c0 01       	movw	r24, r0
 460:	2d 9f       	mul	r18, r29
 462:	90 0d       	add	r25, r0
 464:	3c 9f       	mul	r19, r28
 466:	90 0d       	add	r25, r0
 468:	11 24       	eor	r1, r1
 46a:	a0 e0       	ldi	r26, 0x00	; 0
 46c:	b0 e0       	ldi	r27, 0x00	; 0
		if(PWM_PWR<=253) PWM_PWR++;	
		else {
		PWM_PWR=254;
		}
		neu=sol_pwr();
	} while (neu>=alt);
 46e:	8e 15       	cp	r24, r14
 470:	9f 05       	cpc	r25, r15
 472:	a0 07       	cpc	r26, r16
 474:	b1 07       	cpc	r27, r17
 476:	68 f0       	brcs	.+26     	; 0x492 <__stack+0x33>
		_delay_ms(20);
		if(PWM_PWR<=253) PWM_PWR++;	
		else {
		PWM_PWR=254;
		}
		neu=sol_pwr();
 478:	7c 01       	movw	r14, r24
 47a:	8d 01       	movw	r16, r26
 47c:	8f e5       	ldi	r24, 0x5F	; 95
 47e:	9a ee       	ldi	r25, 0xEA	; 234
 480:	01 97       	sbiw	r24, 0x01	; 1
 482:	f1 f7       	brne	.-4      	; 0x480 <__stack+0x21>
 484:	00 c0       	rjmp	.+0      	; 0x486 <__stack+0x27>
 486:	00 00       	nop

	do 
	{	
		alt=neu;
		_delay_ms(20);
		if(PWM_PWR<=253) PWM_PWR++;	
 488:	83 b5       	in	r24, 0x23	; 35
 48a:	8e 3f       	cpi	r24, 0xFE	; 254
 48c:	f0 f2       	brcs	.-68     	; 0x44a <PPT+0x140>
		else {
		PWM_PWR=254;
 48e:	a3 bc       	out	0x23, r10	; 35
 490:	df cf       	rjmp	.-66     	; 0x450 <PPT+0x146>
		}
		neu=sol_pwr();
	} while (neu>=alt);
	
		PWM_PWR--;
 492:	83 b5       	in	r24, 0x23	; 35
 494:	81 50       	subi	r24, 0x01	; 1
 496:	83 bd       	out	0x23, r24	; 35
	_delay_ms(10);
	pwr_m=sol_pwr();
	
	if ((pwr_p>pwr_alt)&&(pwr_p>=pwr_m))
	{
		PPT_p(pwr_p);
 498:	9b cf       	rjmp	.-202    	; 0x3d0 <PPT+0xc6>

0000049a <main>:

volatile char tCounter=0,GIAF=0;	//GIAF= "generelles Interrupt aktivierungsFlag"
char tCounterb=0;

int main(void)
{
 49a:	ef 92       	push	r14
 49c:	ff 92       	push	r15
 49e:	0f 93       	push	r16
 4a0:	1f 93       	push	r17
 4a2:	cf 93       	push	r28
 4a4:	df 93       	push	r29
	int tempval;
	uint8_t disp_mode=0,disp_stat=1;

//	Start Initialisierung

  DDRB = DDRB & ~(1<<PB2) | (1<<PB3) & ~(1<<PB1) | (1<<PB0) | (1<<PB4) | (1<<PB5);
 4a6:	87 b3       	in	r24, 0x17	; 23
 4a8:	82 7c       	andi	r24, 0xC2	; 194
 4aa:	89 63       	ori	r24, 0x39	; 57
 4ac:	87 bb       	out	0x17, r24	; 23
  DDRC |= (1<<PC5) | (1<<PC4);
 4ae:	84 b3       	in	r24, 0x14	; 20
 4b0:	80 63       	ori	r24, 0x30	; 48
 4b2:	84 bb       	out	0x14, r24	; 20
  DDRD = DDRD & ~(1<<PD6) & ~(1<<PD7) ;	
 4b4:	81 b3       	in	r24, 0x11	; 17
 4b6:	8f 73       	andi	r24, 0x3F	; 63
 4b8:	81 bb       	out	0x11, r24	; 17
	ADC_Init();
 4ba:	0d d1       	rcall	.+538    	; 0x6d6 <ADC_Init>
	lcd_init();
 4bc:	53 d1       	rcall	.+678    	; 0x764 <lcd_init>
 4be:	8f eb       	ldi	r24, 0xBF	; 191
 4c0:	94 ed       	ldi	r25, 0xD4	; 212
 4c2:	a1 e0       	ldi	r26, 0x01	; 1
 4c4:	81 50       	subi	r24, 0x01	; 1
 4c6:	90 40       	sbci	r25, 0x00	; 0
 4c8:	a0 40       	sbci	r26, 0x00	; 0
 4ca:	e1 f7       	brne	.-8      	; 0x4c4 <main+0x2a>
 4cc:	00 c0       	rjmp	.+0      	; 0x4ce <main+0x34>
 4ce:	00 00       	nop
	_delay_ms(50);
 	
	lcd_command(0b00001111);	//cursor setzen
 4d0:	8f e0       	ldi	r24, 0x0F	; 15
 4d2:	0f d2       	rcall	.+1054   	; 0x8f2 <lcd_command>
	lcd_string("Test");
 4d4:	8c e6       	ldi	r24, 0x6C	; 108
 4d6:	90 e0       	ldi	r25, 0x00	; 0
 4d8:	98 d2       	rcall	.+1328   	; 0xa0a <lcd_string>
  //
  //  Steuerung des Ausgangsport: Set at BOTTOM, Clear at match
  //     COM21   COM20
  //       1        0	
 
  TCCR2 = (1<<WGM21) | (1<<WGM20) | (1<<CS20) | (1<<COM21);
 4da:	89 e6       	ldi	r24, 0x69	; 105
 4dc:	85 bd       	out	0x25, r24	; 37
  // PWM Werte eingestellt.

	
		
  // Timer 0 konfigurieren
  TCCR0 = (1<<CS00)|(1<<CS02); // Prescaler 8
 4de:	85 e0       	ldi	r24, 0x05	; 5
 4e0:	83 bf       	out	0x33, r24	; 51

  // Overflow Interrupt erlauben
  TIMSK |= (1<<TOIE0);
 4e2:	89 b7       	in	r24, 0x39	; 57
 4e4:	81 60       	ori	r24, 0x01	; 1
 4e6:	89 bf       	out	0x39, r24	; 57
  PWM_PWR = 200;
 4e8:	88 ec       	ldi	r24, 0xC8	; 200
 4ea:	83 bd       	out	0x23, r24	; 35
 	
  
	sei();
 4ec:	78 94       	sei
	
	
		
	//uint16_t i=0;
	uint8_t Te=0,Tz=0,led_stat=0;
	PORTB&= ~(1<<PB0);
 4ee:	c0 98       	cbi	0x18, 0	; 24
	
	
	
		
	//uint16_t i=0;
	uint8_t Te=0,Tz=0,led_stat=0;
 4f0:	10 e0       	ldi	r17, 0x00	; 0
 4f2:	ff 24       	eor	r15, r15
 4f4:	00 e0       	ldi	r16, 0x00	; 0

int main(void)
{
	
	int tempval;
	uint8_t disp_mode=0,disp_stat=1;
 4f6:	ee 24       	eor	r14, r14
 4f8:	e3 94       	inc	r14
	}	

void TE_Schutz(void){
	uint16_t u_bat;
	
	u_bat=ADC_Read(2);
 4fa:	82 e0       	ldi	r24, 0x02	; 2
 4fc:	fb d0       	rcall	.+502    	; 0x6f4 <ADC_Read>
	if (u_bat <= BAT_LOW) {
 4fe:	8b 3f       	cpi	r24, 0xFB	; 251
 500:	91 05       	cpc	r25, r1
 502:	f0 f0       	brcs	.+60     	; 0x540 <main+0xa6>
		PORTC &= ~(1<<PC5); //PC5=Tiefentladeshutz ausschalten
	}
	else if (u_bat>=(BAT_LOW+3)) {
 504:	8d 3f       	cpi	r24, 0xFD	; 253
 506:	91 05       	cpc	r25, r1
 508:	08 f0       	brcs	.+2      	; 0x50c <main+0x72>
		PORTD |= (1<<PC5); //PC5=Tiefentladeshutz einschalten
 50a:	95 9a       	sbi	0x12, 5	; 18
	while(1)
    {
		
	TE_Schutz();
	
	if (ADC_Read(0)>ADC_Read(2)) //Tag
 50c:	80 e0       	ldi	r24, 0x00	; 0
 50e:	f2 d0       	rcall	.+484    	; 0x6f4 <ADC_Read>
 510:	ec 01       	movw	r28, r24
 512:	82 e0       	ldi	r24, 0x02	; 2
 514:	ef d0       	rcall	.+478    	; 0x6f4 <ADC_Read>
 516:	8c 17       	cp	r24, r28
 518:	9d 07       	cpc	r25, r29
 51a:	14 f5       	brge	.+68     	; 0x560 <main+0xc6>
	{	
		if ((PINB&(1<<PB0))==0) //Shutdown ausmachen
 51c:	b0 9b       	sbis	0x16, 0	; 22
		{
			PORTB|= (1<<PB0);
 51e:	c0 9a       	sbi	0x18, 0	; 24
		}
		
				if (led_stat!=0)	//Lampen aus
 520:	11 23       	and	r17, r17
 522:	19 f0       	breq	.+6      	; 0x52a <main+0x90>
		{
			PORTB=PORTB & ~(1<<PB4) & ~(1<<PB5);
 524:	88 b3       	in	r24, 0x18	; 24
 526:	8f 7c       	andi	r24, 0xCF	; 207
 528:	88 bb       	out	0x18, r24	; 24
			led_stat=0;
		}
		
		PPT();
 52a:	ef de       	rcall	.-546    	; 0x30a <PPT>
		
		if ((tCounter==45)&&(GIAF&(1<<0)))	
 52c:	80 91 72 00 	lds	r24, 0x0072
 530:	8d 32       	cpi	r24, 0x2D	; 45
 532:	41 f0       	breq	.+16     	; 0x544 <main+0xaa>
 534:	10 e0       	ldi	r17, 0x00	; 0
	}	

void TE_Schutz(void){
	uint16_t u_bat;
	
	u_bat=ADC_Read(2);
 536:	82 e0       	ldi	r24, 0x02	; 2
 538:	dd d0       	rcall	.+442    	; 0x6f4 <ADC_Read>
	if (u_bat <= BAT_LOW) {
 53a:	8b 3f       	cpi	r24, 0xFB	; 251
 53c:	91 05       	cpc	r25, r1
 53e:	10 f7       	brcc	.-60     	; 0x504 <main+0x6a>
		PORTC &= ~(1<<PC5); //PC5=Tiefentladeshutz ausschalten
 540:	ad 98       	cbi	0x15, 5	; 21
 542:	e4 cf       	rjmp	.-56     	; 0x50c <main+0x72>
			led_stat=0;
		}
		
		PPT();
		
		if ((tCounter==45)&&(GIAF&(1<<0)))	
 544:	80 91 73 00 	lds	r24, 0x0073
 548:	80 ff       	sbrs	r24, 0
 54a:	f4 cf       	rjmp	.-24     	; 0x534 <main+0x9a>
		{
			disp_stat=Display(disp_mode,disp_stat);
 54c:	8e 2d       	mov	r24, r14
 54e:	87 dd       	rcall	.-1266   	; 0x5e <Display.clone.0>
 550:	e8 2e       	mov	r14, r24
			GIAF&=~(1<<0);
 552:	80 91 73 00 	lds	r24, 0x0073
 556:	8e 7f       	andi	r24, 0xFE	; 254
 558:	80 93 73 00 	sts	0x0073, r24
 55c:	10 e0       	ldi	r17, 0x00	; 0
 55e:	cd cf       	rjmp	.-102    	; 0x4fa <main+0x60>
		}		
	}
	
	else if (ADC_Read(2)>ADC_Read(0)) //Nacht
 560:	82 e0       	ldi	r24, 0x02	; 2
 562:	c8 d0       	rcall	.+400    	; 0x6f4 <ADC_Read>
 564:	ec 01       	movw	r28, r24
 566:	80 e0       	ldi	r24, 0x00	; 0
 568:	c5 d0       	rcall	.+394    	; 0x6f4 <ADC_Read>
 56a:	8c 17       	cp	r24, r28
 56c:	9d 07       	cpc	r25, r29
 56e:	2c f6       	brge	.-118    	; 0x4fa <main+0x60>
	{	
		if ((PINB&~(1<<PB0))!=0)
 570:	86 b3       	in	r24, 0x16	; 22
 572:	8e 7f       	andi	r24, 0xFE	; 254
 574:	09 f0       	breq	.+2      	; 0x578 <main+0xde>
		{
			PORTB&= ~(1<<PB0);
 576:	c0 98       	cbi	0x18, 0	; 24
		}
		
		if ((PINC&(1<<PC4))!=0) //Lï¿½fter aus
 578:	9c 99       	sbic	0x13, 4	; 19
		{
			PORTC&= ~(1<<PC4);
 57a:	ac 98       	cbi	0x15, 4	; 21

		if ((Tz==1)&&(PIND7==0))
		{	Tz=0;
		}
		
		if ((Te==0)&&(PIND6!=0))	//Schalter gedrï¿½ckt, schï¿½ner wï¿½re ï¿½ber interrupt, aber PD2 und PD3 hat das Display
 57c:	00 23       	and	r16, r16
 57e:	29 f4       	brne	.+10     	; 0x58a <main+0xf0>
		{
			Te=1;
			if ((led_stat&(1<<0))==0)
 580:	10 ff       	sbrs	r17, 0
 582:	22 c0       	rjmp	.+68     	; 0x5c8 <main+0x12e>
				led_stat|=(1<<0);
				PORTB|=(1<<PB4);
			}
			else if ((led_stat&(1<<0))!=0)
			{
				led_stat&=~(1<<0);
 584:	1e 7f       	andi	r17, 0xFE	; 254
				PORTB&=~(1<<PB4);
 586:	c4 98       	cbi	0x18, 4	; 24
		{	Tz=0;
		}
		
		if ((Te==0)&&(PIND6!=0))	//Schalter gedrï¿½ckt, schï¿½ner wï¿½re ï¿½ber interrupt, aber PD2 und PD3 hat das Display
		{
			Te=1;
 588:	01 e0       	ldi	r16, 0x01	; 1
				led_stat&=~(1<<0);
				PORTB&=~(1<<PB4);
			} 
		}
		
		if ((Tz==0)&&(PIND7!=0))	//Schalter gedrï¿½ckt, schï¿½ner wï¿½re ï¿½ber interrupt, aber PD2 und PD3 hat das Display
 58a:	ff 20       	and	r15, r15
 58c:	31 f4       	brne	.+12     	; 0x59a <main+0x100>
		{
			Tz=1;
			if ((led_stat&(1<<1))==0)
 58e:	11 ff       	sbrs	r17, 1
 590:	16 c0       	rjmp	.+44     	; 0x5be <main+0x124>
				led_stat|=(1<<1);
				PORTB|=(1<<PB5);
			}
			else if ((led_stat&(1<<1))!=0)
			{
				led_stat&=~(1<<1);
 592:	1d 7f       	andi	r17, 0xFD	; 253
				PORTB&=~(1<<PB5);
 594:	c5 98       	cbi	0x18, 5	; 24
			} 
		}
		
		if ((Tz==0)&&(PIND7!=0))	//Schalter gedrï¿½ckt, schï¿½ner wï¿½re ï¿½ber interrupt, aber PD2 und PD3 hat das Display
		{
			Tz=1;
 596:	ff 24       	eor	r15, r15
 598:	f3 94       	inc	r15
				led_stat&=~(1<<1);
				PORTB&=~(1<<PB5);
			} 
		}
		
		if ((tCounter==45)&&(GIAF&(1<<0)))	
 59a:	80 91 72 00 	lds	r24, 0x0072
 59e:	8d 32       	cpi	r24, 0x2D	; 45
 5a0:	09 f0       	breq	.+2      	; 0x5a4 <main+0x10a>
 5a2:	ab cf       	rjmp	.-170    	; 0x4fa <main+0x60>
 5a4:	80 91 73 00 	lds	r24, 0x0073
 5a8:	80 ff       	sbrs	r24, 0
 5aa:	a7 cf       	rjmp	.-178    	; 0x4fa <main+0x60>
		{	disp_stat=Display(disp_mode,disp_stat);
 5ac:	8e 2d       	mov	r24, r14
 5ae:	57 dd       	rcall	.-1362   	; 0x5e <Display.clone.0>
 5b0:	e8 2e       	mov	r14, r24
			GIAF&=~(1<<0);
 5b2:	80 91 73 00 	lds	r24, 0x0073
 5b6:	8e 7f       	andi	r24, 0xFE	; 254
 5b8:	80 93 73 00 	sts	0x0073, r24
 5bc:	9e cf       	rjmp	.-196    	; 0x4fa <main+0x60>
		if ((Tz==0)&&(PIND7!=0))	//Schalter gedrï¿½ckt, schï¿½ner wï¿½re ï¿½ber interrupt, aber PD2 und PD3 hat das Display
		{
			Tz=1;
			if ((led_stat&(1<<1))==0)
			{
				led_stat|=(1<<1);
 5be:	12 60       	ori	r17, 0x02	; 2
				PORTB|=(1<<PB5);
 5c0:	c5 9a       	sbi	0x18, 5	; 24
			} 
		}
		
		if ((Tz==0)&&(PIND7!=0))	//Schalter gedrï¿½ckt, schï¿½ner wï¿½re ï¿½ber interrupt, aber PD2 und PD3 hat das Display
		{
			Tz=1;
 5c2:	ff 24       	eor	r15, r15
 5c4:	f3 94       	inc	r15
 5c6:	e9 cf       	rjmp	.-46     	; 0x59a <main+0x100>
		if ((Te==0)&&(PIND6!=0))	//Schalter gedrï¿½ckt, schï¿½ner wï¿½re ï¿½ber interrupt, aber PD2 und PD3 hat das Display
		{
			Te=1;
			if ((led_stat&(1<<0))==0)
			{
				led_stat|=(1<<0);
 5c8:	11 60       	ori	r17, 0x01	; 1
				PORTB|=(1<<PB4);
 5ca:	c4 9a       	sbi	0x18, 4	; 24
		{	Tz=0;
		}
		
		if ((Te==0)&&(PIND6!=0))	//Schalter gedrï¿½ckt, schï¿½ner wï¿½re ï¿½ber interrupt, aber PD2 und PD3 hat das Display
		{
			Te=1;
 5cc:	01 e0       	ldi	r16, 0x01	; 1
 5ce:	dd cf       	rjmp	.-70     	; 0x58a <main+0xf0>

000005d0 <PPT_p>:
		PWM_PWR++;
		return;
	}		
}

void PPT_p(uint32_t neu){
 5d0:	df 92       	push	r13
 5d2:	ef 92       	push	r14
 5d4:	ff 92       	push	r15
 5d6:	0f 93       	push	r16
 5d8:	1f 93       	push	r17
 5da:	cf 93       	push	r28
 5dc:	df 93       	push	r29
 5de:	7b 01       	movw	r14, r22
 5e0:	8c 01       	movw	r16, r24
	{	
		alt=neu;
		_delay_ms(20);
		if(PWM_PWR<=253) PWM_PWR++;	
		else {
		PWM_PWR=254;
 5e2:	9e ef       	ldi	r25, 0xFE	; 254
 5e4:	d9 2e       	mov	r13, r25
 5e6:	19 c0       	rjmp	.+50     	; 0x61a <PPT_p+0x4a>

	do 
	{	
		alt=neu;
		_delay_ms(20);
		if(PWM_PWR<=253) PWM_PWR++;	
 5e8:	83 b5       	in	r24, 0x23	; 35
 5ea:	8f 5f       	subi	r24, 0xFF	; 255
 5ec:	83 bd       	out	0x23, r24	; 35
*/
uint32_t sol_pwr(void){
	uint16_t sol_u,sol_i;
	uint32_t pwr;
	
	sol_u=ADC_Read(0);
 5ee:	80 e0       	ldi	r24, 0x00	; 0
 5f0:	81 d0       	rcall	.+258    	; 0x6f4 <ADC_Read>
 5f2:	ec 01       	movw	r28, r24
	sol_i=ADC_Read(1);
 5f4:	81 e0       	ldi	r24, 0x01	; 1
 5f6:	7e d0       	rcall	.+252    	; 0x6f4 <ADC_Read>
	pwr=sol_u*sol_i;
 5f8:	9c 01       	movw	r18, r24
 5fa:	2c 9f       	mul	r18, r28
 5fc:	c0 01       	movw	r24, r0
 5fe:	2d 9f       	mul	r18, r29
 600:	90 0d       	add	r25, r0
 602:	3c 9f       	mul	r19, r28
 604:	90 0d       	add	r25, r0
 606:	11 24       	eor	r1, r1
 608:	a0 e0       	ldi	r26, 0x00	; 0
 60a:	b0 e0       	ldi	r27, 0x00	; 0
		if(PWM_PWR<=253) PWM_PWR++;	
		else {
		PWM_PWR=254;
		}
		neu=sol_pwr();
	} while (neu>=alt);
 60c:	8e 15       	cp	r24, r14
 60e:	9f 05       	cpc	r25, r15
 610:	a0 07       	cpc	r26, r16
 612:	b1 07       	cpc	r27, r17
 614:	68 f0       	brcs	.+26     	; 0x630 <PPT_p+0x60>
		_delay_ms(20);
		if(PWM_PWR<=253) PWM_PWR++;	
		else {
		PWM_PWR=254;
		}
		neu=sol_pwr();
 616:	7c 01       	movw	r14, r24
 618:	8d 01       	movw	r16, r26
 61a:	8f e5       	ldi	r24, 0x5F	; 95
 61c:	9a ee       	ldi	r25, 0xEA	; 234
 61e:	01 97       	sbiw	r24, 0x01	; 1
 620:	f1 f7       	brne	.-4      	; 0x61e <PPT_p+0x4e>
 622:	00 c0       	rjmp	.+0      	; 0x624 <PPT_p+0x54>
 624:	00 00       	nop

	do 
	{	
		alt=neu;
		_delay_ms(20);
		if(PWM_PWR<=253) PWM_PWR++;	
 626:	83 b5       	in	r24, 0x23	; 35
 628:	8e 3f       	cpi	r24, 0xFE	; 254
 62a:	f0 f2       	brcs	.-68     	; 0x5e8 <PPT_p+0x18>
		else {
		PWM_PWR=254;
 62c:	d3 bc       	out	0x23, r13	; 35
 62e:	df cf       	rjmp	.-66     	; 0x5ee <PPT_p+0x1e>
		}
		neu=sol_pwr();
	} while (neu>=alt);
	
		PWM_PWR--;
 630:	83 b5       	in	r24, 0x23	; 35
 632:	81 50       	subi	r24, 0x01	; 1
 634:	83 bd       	out	0x23, r24	; 35
		return;	
	}	
 636:	df 91       	pop	r29
 638:	cf 91       	pop	r28
 63a:	1f 91       	pop	r17
 63c:	0f 91       	pop	r16
 63e:	ff 90       	pop	r15
 640:	ef 90       	pop	r14
 642:	df 90       	pop	r13
 644:	08 95       	ret

00000646 <PPT_m>:


void PPT_m(uint32_t neu){
 646:	df 92       	push	r13
 648:	ef 92       	push	r14
 64a:	ff 92       	push	r15
 64c:	0f 93       	push	r16
 64e:	1f 93       	push	r17
 650:	cf 93       	push	r28
 652:	df 93       	push	r29
 654:	7b 01       	movw	r14, r22
 656:	8c 01       	movw	r16, r24
	{	
		alt=neu;
		_delay_ms(20);
		if(PWM_PWR>=2) PWM_PWR--;	
		else {
		PWM_PWR=1;
 658:	dd 24       	eor	r13, r13
 65a:	d3 94       	inc	r13
 65c:	19 c0       	rjmp	.+50     	; 0x690 <PPT_m+0x4a>

	do 
	{	
		alt=neu;
		_delay_ms(20);
		if(PWM_PWR>=2) PWM_PWR--;	
 65e:	83 b5       	in	r24, 0x23	; 35
 660:	81 50       	subi	r24, 0x01	; 1
 662:	83 bd       	out	0x23, r24	; 35
*/
uint32_t sol_pwr(void){
	uint16_t sol_u,sol_i;
	uint32_t pwr;
	
	sol_u=ADC_Read(0);
 664:	80 e0       	ldi	r24, 0x00	; 0
 666:	46 d0       	rcall	.+140    	; 0x6f4 <ADC_Read>
 668:	ec 01       	movw	r28, r24
	sol_i=ADC_Read(1);
 66a:	81 e0       	ldi	r24, 0x01	; 1
 66c:	43 d0       	rcall	.+134    	; 0x6f4 <ADC_Read>
	pwr=sol_u*sol_i;
 66e:	9c 01       	movw	r18, r24
 670:	2c 9f       	mul	r18, r28
 672:	c0 01       	movw	r24, r0
 674:	2d 9f       	mul	r18, r29
 676:	90 0d       	add	r25, r0
 678:	3c 9f       	mul	r19, r28
 67a:	90 0d       	add	r25, r0
 67c:	11 24       	eor	r1, r1
 67e:	a0 e0       	ldi	r26, 0x00	; 0
 680:	b0 e0       	ldi	r27, 0x00	; 0
		if(PWM_PWR>=2) PWM_PWR--;	
		else {
		PWM_PWR=1;
		}
		neu=sol_pwr();
	} while (neu>=alt);
 682:	8e 15       	cp	r24, r14
 684:	9f 05       	cpc	r25, r15
 686:	a0 07       	cpc	r26, r16
 688:	b1 07       	cpc	r27, r17
 68a:	68 f0       	brcs	.+26     	; 0x6a6 <PPT_m+0x60>
		_delay_ms(20);
		if(PWM_PWR>=2) PWM_PWR--;	
		else {
		PWM_PWR=1;
		}
		neu=sol_pwr();
 68c:	7c 01       	movw	r14, r24
 68e:	8d 01       	movw	r16, r26
 690:	8f e5       	ldi	r24, 0x5F	; 95
 692:	9a ee       	ldi	r25, 0xEA	; 234
 694:	01 97       	sbiw	r24, 0x01	; 1
 696:	f1 f7       	brne	.-4      	; 0x694 <PPT_m+0x4e>
 698:	00 c0       	rjmp	.+0      	; 0x69a <PPT_m+0x54>
 69a:	00 00       	nop

	do 
	{	
		alt=neu;
		_delay_ms(20);
		if(PWM_PWR>=2) PWM_PWR--;	
 69c:	83 b5       	in	r24, 0x23	; 35
 69e:	82 30       	cpi	r24, 0x02	; 2
 6a0:	f0 f6       	brcc	.-68     	; 0x65e <PPT_m+0x18>
		else {
		PWM_PWR=1;
 6a2:	d3 bc       	out	0x23, r13	; 35
 6a4:	df cf       	rjmp	.-66     	; 0x664 <PPT_m+0x1e>
		}
		neu=sol_pwr();
	} while (neu>=alt);
	
		PWM_PWR++;
 6a6:	83 b5       	in	r24, 0x23	; 35
 6a8:	8f 5f       	subi	r24, 0xFF	; 255
 6aa:	83 bd       	out	0x23, r24	; 35
		return;	
	}	
 6ac:	df 91       	pop	r29
 6ae:	cf 91       	pop	r28
 6b0:	1f 91       	pop	r17
 6b2:	0f 91       	pop	r16
 6b4:	ff 90       	pop	r15
 6b6:	ef 90       	pop	r14
 6b8:	df 90       	pop	r13
 6ba:	08 95       	ret

000006bc <TE_Schutz>:

void TE_Schutz(void){
	uint16_t u_bat;
	
	u_bat=ADC_Read(2);
 6bc:	82 e0       	ldi	r24, 0x02	; 2
 6be:	1a d0       	rcall	.+52     	; 0x6f4 <ADC_Read>
	if (u_bat <= BAT_LOW) {
 6c0:	8b 3f       	cpi	r24, 0xFB	; 251
 6c2:	91 05       	cpc	r25, r1
 6c4:	28 f0       	brcs	.+10     	; 0x6d0 <TE_Schutz+0x14>
		PORTC &= ~(1<<PC5); //PC5=Tiefentladeshutz ausschalten
	}
	else if (u_bat>=(BAT_LOW+3)) {
 6c6:	8d 3f       	cpi	r24, 0xFD	; 253
 6c8:	91 05       	cpc	r25, r1
 6ca:	08 f0       	brcs	.+2      	; 0x6ce <TE_Schutz+0x12>
		PORTD |= (1<<PC5); //PC5=Tiefentladeshutz einschalten
 6cc:	95 9a       	sbi	0x12, 5	; 18
 6ce:	08 95       	ret
void TE_Schutz(void){
	uint16_t u_bat;
	
	u_bat=ADC_Read(2);
	if (u_bat <= BAT_LOW) {
		PORTC &= ~(1<<PC5); //PC5=Tiefentladeshutz ausschalten
 6d0:	ad 98       	cbi	0x15, 5	; 21
 6d2:	08 95       	ret

000006d4 <UL_Schutz>:
	}
}

void UL_Schutz(void){
	
 6d4:	08 95       	ret

000006d6 <ADC_Init>:
void ADC_Init(void) {
 
  int result;
 
//  ADMUX = (0<<REFS1) | (1<<REFS0);      // AVcc als Referenz benutzen
  ADMUX = (1<<REFS1) | (1<<REFS0);      // interne Referenzspannung nutzen
 6d6:	80 ec       	ldi	r24, 0xC0	; 192
 6d8:	87 b9       	out	0x07, r24	; 7
  ADCSRA =(1<<ADPS2) | (1<<ADPS1) | (0<<ADPS0);     // Frequenzvorteiler: 64
 6da:	86 e0       	ldi	r24, 0x06	; 6
 6dc:	86 b9       	out	0x06, r24	; 6
  ADCSRA |= (1<<ADEN);                  // ADC aktivieren
 6de:	37 9a       	sbi	0x06, 7	; 6
 
  /* nach Aktivieren des ADC wird ein "Dummy-Readout" empfohlen, man liest
     also einen Wert und verwirft diesen, um den ADC "warmlaufen zu lassen" */
 
  ADCSRA |= (1<<ADSC);                  // eine ADC-Wandlung 
 6e0:	36 9a       	sbi	0x06, 6	; 6
  while (ADCSRA & (1<<ADSC) ) {}        // auf Abschluss der Konvertierung warten
 6e2:	36 99       	sbic	0x06, 6	; 6
 6e4:	fe cf       	rjmp	.-4      	; 0x6e2 <ADC_Init+0xc>
  /* ADCW muss einmal gelesen werden, sonst wird Ergebnis der nächsten
     Wandlung nicht übernommen. */
  result = ADCW;
 6e6:	84 b1       	in	r24, 0x04	; 4
 6e8:	95 b1       	in	r25, 0x05	; 5
}
 6ea:	08 95       	ret

000006ec <ADC_enable>:
 
 void ADC_enable(void) {
 ADCSRA |= (1<<ADEN);                  // ADC aktivieren
 6ec:	37 9a       	sbi	0x06, 7	; 6
 }
 6ee:	08 95       	ret

000006f0 <ADC_disable>:
 
 void ADC_disable(void) {
 ADCSRA &=~(1<<ADEN);                  // ADC deaktivieren
 6f0:	37 98       	cbi	0x06, 7	; 6
 }
 6f2:	08 95       	ret

000006f4 <ADC_Read>:
    
/* ADC Einzelmessung */
int ADC_Read( char channel )
{
  // Kanal waehlen, ohne andere Bits zu beeinflußen
  ADMUX = (ADMUX & ~(0x1F)) | (channel & 0x1F);
 6f4:	97 b1       	in	r25, 0x07	; 7
 6f6:	8f 71       	andi	r24, 0x1F	; 31
 6f8:	90 7e       	andi	r25, 0xE0	; 224
 6fa:	89 2b       	or	r24, r25
 6fc:	87 b9       	out	0x07, r24	; 7
  ADCSRA |= (1<<ADSC);            // eine Wandlung "single conversion"
 6fe:	36 9a       	sbi	0x06, 6	; 6
  while (ADCSRA & (1<<ADSC) ) {}  // auf Abschluss der Konvertierung warten
 700:	36 99       	sbic	0x06, 6	; 6
 702:	fe cf       	rjmp	.-4      	; 0x700 <ADC_Read+0xc>
  return ADCW;                    // ADC auslesen und zurückgeben
 704:	24 b1       	in	r18, 0x04	; 4
 706:	35 b1       	in	r19, 0x05	; 5
}
 708:	c9 01       	movw	r24, r18
 70a:	08 95       	ret

0000070c <ADC_Read_Avg>:
 
//ADC Mehrfachmessung mit Mittelwertbbildung 
int ADC_Read_Avg( char channel, char average )
{
 70c:	0f 93       	push	r16
 70e:	1f 93       	push	r17
 710:	56 2f       	mov	r21, r22
  long result = 0;
 
  for (char i = 0; i < average; ++i )
 712:	66 23       	and	r22, r22
 714:	19 f1       	breq	.+70     	; 0x75c <ADC_Read_Avg+0x50>
 716:	e8 2f       	mov	r30, r24
 718:	ef 71       	andi	r30, 0x1F	; 31
 71a:	40 e0       	ldi	r20, 0x00	; 0
}
 
//ADC Mehrfachmessung mit Mittelwertbbildung 
int ADC_Read_Avg( char channel, char average )
{
  long result = 0;
 71c:	60 e0       	ldi	r22, 0x00	; 0
 71e:	70 e0       	ldi	r23, 0x00	; 0
 720:	cb 01       	movw	r24, r22
    
/* ADC Einzelmessung */
int ADC_Read( char channel )
{
  // Kanal waehlen, ohne andere Bits zu beeinflußen
  ADMUX = (ADMUX & ~(0x1F)) | (channel & 0x1F);
 722:	37 b1       	in	r19, 0x07	; 7
 724:	30 7e       	andi	r19, 0xE0	; 224
 726:	3e 2b       	or	r19, r30
 728:	37 b9       	out	0x07, r19	; 7
  ADCSRA |= (1<<ADSC);            // eine Wandlung "single conversion"
 72a:	36 9a       	sbi	0x06, 6	; 6
  while (ADCSRA & (1<<ADSC) ) {}  // auf Abschluss der Konvertierung warten
 72c:	36 99       	sbic	0x06, 6	; 6
 72e:	fe cf       	rjmp	.-4      	; 0x72c <ADC_Read_Avg+0x20>
  return ADCW;                    // ADC auslesen und zurückgeben
 730:	04 b1       	in	r16, 0x04	; 4
 732:	15 b1       	in	r17, 0x05	; 5
int ADC_Read_Avg( char channel, char average )
{
  long result = 0;
 
  for (char i = 0; i < average; ++i )
    result += ADC_Read( channel );
 734:	22 27       	eor	r18, r18
 736:	17 fd       	sbrc	r17, 7
 738:	20 95       	com	r18
 73a:	32 2f       	mov	r19, r18
 73c:	60 0f       	add	r22, r16
 73e:	71 1f       	adc	r23, r17
 740:	82 1f       	adc	r24, r18
 742:	93 1f       	adc	r25, r19
//ADC Mehrfachmessung mit Mittelwertbbildung 
int ADC_Read_Avg( char channel, char average )
{
  long result = 0;
 
  for (char i = 0; i < average; ++i )
 744:	4f 5f       	subi	r20, 0xFF	; 255
 746:	45 17       	cp	r20, r21
 748:	60 f3       	brcs	.-40     	; 0x722 <ADC_Read_Avg+0x16>
    result += ADC_Read( channel );
 
  return (int)( result / average );
 74a:	25 2f       	mov	r18, r21
 74c:	30 e0       	ldi	r19, 0x00	; 0
 74e:	40 e0       	ldi	r20, 0x00	; 0
 750:	50 e0       	ldi	r21, 0x00	; 0
 752:	96 d1       	rcall	.+812    	; 0xa80 <__divmodsi4>
}
 754:	c9 01       	movw	r24, r18
 756:	1f 91       	pop	r17
 758:	0f 91       	pop	r16
 75a:	08 95       	ret
}
 
//ADC Mehrfachmessung mit Mittelwertbbildung 
int ADC_Read_Avg( char channel, char average )
{
  long result = 0;
 75c:	60 e0       	ldi	r22, 0x00	; 0
 75e:	70 e0       	ldi	r23, 0x00	; 0
 760:	cb 01       	movw	r24, r22
 762:	f3 cf       	rjmp	.-26     	; 0x74a <ADC_Read_Avg+0x3e>

00000764 <lcd_init>:
{
    // verwendete Pins auf Ausgang schalten
    uint8_t pins = (0x0F << LCD_DB) |           // 4 Datenleitungen
                   (1<<LCD_RS) |                // R/S Leitung
                   (1<<LCD_EN);                 // Enable Leitung
    LCD_DDR |= pins;
 764:	81 b3       	in	r24, 0x11	; 17
 766:	8f 63       	ori	r24, 0x3F	; 63
 768:	81 bb       	out	0x11, r24	; 17
 
    // initial alle Ausgänge auf Null
    LCD_PORT &= ~pins;
 76a:	82 b3       	in	r24, 0x12	; 18
 76c:	80 7c       	andi	r24, 0xC0	; 192
 76e:	82 bb       	out	0x12, r24	; 18
 770:	87 ec       	ldi	r24, 0xC7	; 199
 772:	9f ea       	ldi	r25, 0xAF	; 175
 774:	01 97       	sbiw	r24, 0x01	; 1
 776:	f1 f7       	brne	.-4      	; 0x774 <lcd_init+0x10>
 778:	00 c0       	rjmp	.+0      	; 0x77a <lcd_init+0x16>
 77a:	00 00       	nop
// Sendet eine 4-bit Ausgabeoperation an das LCD
static void lcd_out( uint8_t data )
{
    data &= 0xF0;                       // obere 4 Bit maskieren
 
    LCD_PORT &= ~(0xF0>>(4-LCD_DB));    // Maske löschen
 77c:	82 b3       	in	r24, 0x12	; 18
 77e:	80 7f       	andi	r24, 0xF0	; 240
 780:	82 bb       	out	0x12, r24	; 18
    LCD_PORT |= (data>>(4-LCD_DB));     // Bits setzen
 782:	82 b3       	in	r24, 0x12	; 18
 784:	83 60       	ori	r24, 0x03	; 3
 786:	82 bb       	out	0x12, r24	; 18
 
////////////////////////////////////////////////////////////////////////////////
// Erzeugt einen Enable-Puls
static void lcd_enable( void )
{
    LCD_PORT |= (1<<LCD_EN);     // Enable auf 1 setzen
 788:	95 9a       	sbi	0x12, 5	; 18
	#else
		//round up by default
		__ticks_dc = (uint32_t)(ceil(fabs(__tmp)));
	#endif

	__builtin_avr_delay_cycles(__ticks_dc);
 78a:	94 e0       	ldi	r25, 0x04	; 4
 78c:	9a 95       	dec	r25
 78e:	f1 f7       	brne	.-4      	; 0x78c <lcd_init+0x28>
    _delay_us( LCD_ENABLE_US );  // kurze Pause
    LCD_PORT &= ~(1<<LCD_EN);    // Enable auf 0 setzen
 790:	95 98       	cbi	0x12, 5	; 18
	#else
		//round up by default
		__ticks_dc = (uint32_t)(ceil(fabs(__tmp)));
	#endif

	__builtin_avr_delay_cycles(__ticks_dc);
 792:	87 e9       	ldi	r24, 0x97	; 151
 794:	9a e3       	ldi	r25, 0x3A	; 58
 796:	01 97       	sbiw	r24, 0x01	; 1
 798:	f1 f7       	brne	.-4      	; 0x796 <lcd_init+0x32>
 79a:	00 c0       	rjmp	.+0      	; 0x79c <lcd_init+0x38>
 79c:	00 00       	nop
 
////////////////////////////////////////////////////////////////////////////////
// Erzeugt einen Enable-Puls
static void lcd_enable( void )
{
    LCD_PORT |= (1<<LCD_EN);     // Enable auf 1 setzen
 79e:	95 9a       	sbi	0x12, 5	; 18
	#else
		//round up by default
		__ticks_dc = (uint32_t)(ceil(fabs(__tmp)));
	#endif

	__builtin_avr_delay_cycles(__ticks_dc);
 7a0:	94 e0       	ldi	r25, 0x04	; 4
 7a2:	9a 95       	dec	r25
 7a4:	f1 f7       	brne	.-4      	; 0x7a2 <lcd_init+0x3e>
    _delay_us( LCD_ENABLE_US );  // kurze Pause
    LCD_PORT &= ~(1<<LCD_EN);    // Enable auf 0 setzen
 7a6:	95 98       	cbi	0x12, 5	; 18
	#else
		//round up by default
		__ticks_dc = (uint32_t)(ceil(fabs(__tmp)));
	#endif

	__builtin_avr_delay_cycles(__ticks_dc);
 7a8:	87 eb       	ldi	r24, 0xB7	; 183
 7aa:	9b e0       	ldi	r25, 0x0B	; 11
 7ac:	01 97       	sbiw	r24, 0x01	; 1
 7ae:	f1 f7       	brne	.-4      	; 0x7ac <lcd_init+0x48>
 7b0:	00 c0       	rjmp	.+0      	; 0x7b2 <lcd_init+0x4e>
 7b2:	00 00       	nop
 
////////////////////////////////////////////////////////////////////////////////
// Erzeugt einen Enable-Puls
static void lcd_enable( void )
{
    LCD_PORT |= (1<<LCD_EN);     // Enable auf 1 setzen
 7b4:	95 9a       	sbi	0x12, 5	; 18
	#else
		//round up by default
		__ticks_dc = (uint32_t)(ceil(fabs(__tmp)));
	#endif

	__builtin_avr_delay_cycles(__ticks_dc);
 7b6:	94 e0       	ldi	r25, 0x04	; 4
 7b8:	9a 95       	dec	r25
 7ba:	f1 f7       	brne	.-4      	; 0x7b8 <lcd_init+0x54>
    _delay_us( LCD_ENABLE_US );  // kurze Pause
    LCD_PORT &= ~(1<<LCD_EN);    // Enable auf 0 setzen
 7bc:	95 98       	cbi	0x12, 5	; 18
	#else
		//round up by default
		__ticks_dc = (uint32_t)(ceil(fabs(__tmp)));
	#endif

	__builtin_avr_delay_cycles(__ticks_dc);
 7be:	87 eb       	ldi	r24, 0xB7	; 183
 7c0:	9b e0       	ldi	r25, 0x0B	; 11
 7c2:	01 97       	sbiw	r24, 0x01	; 1
 7c4:	f1 f7       	brne	.-4      	; 0x7c2 <lcd_init+0x5e>
 7c6:	00 c0       	rjmp	.+0      	; 0x7c8 <lcd_init+0x64>
 7c8:	00 00       	nop
// Sendet eine 4-bit Ausgabeoperation an das LCD
static void lcd_out( uint8_t data )
{
    data &= 0xF0;                       // obere 4 Bit maskieren
 
    LCD_PORT &= ~(0xF0>>(4-LCD_DB));    // Maske löschen
 7ca:	82 b3       	in	r24, 0x12	; 18
 7cc:	80 7f       	andi	r24, 0xF0	; 240
 7ce:	82 bb       	out	0x12, r24	; 18
    LCD_PORT |= (data>>(4-LCD_DB));     // Bits setzen
 7d0:	91 9a       	sbi	0x12, 1	; 18
 
////////////////////////////////////////////////////////////////////////////////
// Erzeugt einen Enable-Puls
static void lcd_enable( void )
{
    LCD_PORT |= (1<<LCD_EN);     // Enable auf 1 setzen
 7d2:	95 9a       	sbi	0x12, 5	; 18
	#else
		//round up by default
		__ticks_dc = (uint32_t)(ceil(fabs(__tmp)));
	#endif

	__builtin_avr_delay_cycles(__ticks_dc);
 7d4:	94 e0       	ldi	r25, 0x04	; 4
 7d6:	9a 95       	dec	r25
 7d8:	f1 f7       	brne	.-4      	; 0x7d6 <lcd_init+0x72>
    _delay_us( LCD_ENABLE_US );  // kurze Pause
    LCD_PORT &= ~(1<<LCD_EN);    // Enable auf 0 setzen
 7da:	95 98       	cbi	0x12, 5	; 18
	#else
		//round up by default
		__ticks_dc = (uint32_t)(ceil(fabs(__tmp)));
	#endif

	__builtin_avr_delay_cycles(__ticks_dc);
 7dc:	87 e9       	ldi	r24, 0x97	; 151
 7de:	9a e3       	ldi	r25, 0x3A	; 58
 7e0:	01 97       	sbiw	r24, 0x01	; 1
 7e2:	f1 f7       	brne	.-4      	; 0x7e0 <lcd_init+0x7c>
 7e4:	00 c0       	rjmp	.+0      	; 0x7e6 <lcd_init+0x82>
 7e6:	00 00       	nop
 
////////////////////////////////////////////////////////////////////////////////
// Sendet einen Befehl an das LCD
void lcd_command( uint8_t data )
{
    LCD_PORT &= ~(1<<LCD_RS);    // RS auf 0 setzen
 7e8:	94 98       	cbi	0x12, 4	; 18
// Sendet eine 4-bit Ausgabeoperation an das LCD
static void lcd_out( uint8_t data )
{
    data &= 0xF0;                       // obere 4 Bit maskieren
 
    LCD_PORT &= ~(0xF0>>(4-LCD_DB));    // Maske löschen
 7ea:	82 b3       	in	r24, 0x12	; 18
 7ec:	80 7f       	andi	r24, 0xF0	; 240
 7ee:	82 bb       	out	0x12, r24	; 18
    LCD_PORT |= (data>>(4-LCD_DB));     // Bits setzen
 7f0:	91 9a       	sbi	0x12, 1	; 18
 
////////////////////////////////////////////////////////////////////////////////
// Erzeugt einen Enable-Puls
static void lcd_enable( void )
{
    LCD_PORT |= (1<<LCD_EN);     // Enable auf 1 setzen
 7f2:	95 9a       	sbi	0x12, 5	; 18
	#else
		//round up by default
		__ticks_dc = (uint32_t)(ceil(fabs(__tmp)));
	#endif

	__builtin_avr_delay_cycles(__ticks_dc);
 7f4:	94 e0       	ldi	r25, 0x04	; 4
 7f6:	9a 95       	dec	r25
 7f8:	f1 f7       	brne	.-4      	; 0x7f6 <lcd_init+0x92>
    _delay_us( LCD_ENABLE_US );  // kurze Pause
    LCD_PORT &= ~(1<<LCD_EN);    // Enable auf 0 setzen
 7fa:	95 98       	cbi	0x12, 5	; 18
// Sendet eine 4-bit Ausgabeoperation an das LCD
static void lcd_out( uint8_t data )
{
    data &= 0xF0;                       // obere 4 Bit maskieren
 
    LCD_PORT &= ~(0xF0>>(4-LCD_DB));    // Maske löschen
 7fc:	82 b3       	in	r24, 0x12	; 18
 7fe:	80 7f       	andi	r24, 0xF0	; 240
 800:	82 bb       	out	0x12, r24	; 18
    LCD_PORT |= (data>>(4-LCD_DB));     // Bits setzen
 802:	93 9a       	sbi	0x12, 3	; 18
 
////////////////////////////////////////////////////////////////////////////////
// Erzeugt einen Enable-Puls
static void lcd_enable( void )
{
    LCD_PORT |= (1<<LCD_EN);     // Enable auf 1 setzen
 804:	95 9a       	sbi	0x12, 5	; 18
 806:	84 e0       	ldi	r24, 0x04	; 4
 808:	8a 95       	dec	r24
 80a:	f1 f7       	brne	.-4      	; 0x808 <lcd_init+0xa4>
    _delay_us( LCD_ENABLE_US );  // kurze Pause
    LCD_PORT &= ~(1<<LCD_EN);    // Enable auf 0 setzen
 80c:	95 98       	cbi	0x12, 5	; 18
 80e:	98 ea       	ldi	r25, 0xA8	; 168
 810:	9a 95       	dec	r25
 812:	f1 f7       	brne	.-4      	; 0x810 <lcd_init+0xac>
 
////////////////////////////////////////////////////////////////////////////////
// Sendet einen Befehl an das LCD
void lcd_command( uint8_t data )
{
    LCD_PORT &= ~(1<<LCD_RS);    // RS auf 0 setzen
 814:	94 98       	cbi	0x12, 4	; 18
// Sendet eine 4-bit Ausgabeoperation an das LCD
static void lcd_out( uint8_t data )
{
    data &= 0xF0;                       // obere 4 Bit maskieren
 
    LCD_PORT &= ~(0xF0>>(4-LCD_DB));    // Maske löschen
 816:	82 b3       	in	r24, 0x12	; 18
 818:	80 7f       	andi	r24, 0xF0	; 240
 81a:	82 bb       	out	0x12, r24	; 18
    LCD_PORT |= (data>>(4-LCD_DB));     // Bits setzen
 81c:	82 b3       	in	r24, 0x12	; 18
 81e:	82 bb       	out	0x12, r24	; 18
 
////////////////////////////////////////////////////////////////////////////////
// Erzeugt einen Enable-Puls
static void lcd_enable( void )
{
    LCD_PORT |= (1<<LCD_EN);     // Enable auf 1 setzen
 820:	95 9a       	sbi	0x12, 5	; 18
 822:	84 e0       	ldi	r24, 0x04	; 4
 824:	8a 95       	dec	r24
 826:	f1 f7       	brne	.-4      	; 0x824 <lcd_init+0xc0>
    _delay_us( LCD_ENABLE_US );  // kurze Pause
    LCD_PORT &= ~(1<<LCD_EN);    // Enable auf 0 setzen
 828:	95 98       	cbi	0x12, 5	; 18
// Sendet eine 4-bit Ausgabeoperation an das LCD
static void lcd_out( uint8_t data )
{
    data &= 0xF0;                       // obere 4 Bit maskieren
 
    LCD_PORT &= ~(0xF0>>(4-LCD_DB));    // Maske löschen
 82a:	82 b3       	in	r24, 0x12	; 18
 82c:	80 7f       	andi	r24, 0xF0	; 240
 82e:	82 bb       	out	0x12, r24	; 18
    LCD_PORT |= (data>>(4-LCD_DB));     // Bits setzen
 830:	82 b3       	in	r24, 0x12	; 18
 832:	8c 60       	ori	r24, 0x0C	; 12
 834:	82 bb       	out	0x12, r24	; 18
 
////////////////////////////////////////////////////////////////////////////////
// Erzeugt einen Enable-Puls
static void lcd_enable( void )
{
    LCD_PORT |= (1<<LCD_EN);     // Enable auf 1 setzen
 836:	95 9a       	sbi	0x12, 5	; 18
 838:	94 e0       	ldi	r25, 0x04	; 4
 83a:	9a 95       	dec	r25
 83c:	f1 f7       	brne	.-4      	; 0x83a <lcd_init+0xd6>
    _delay_us( LCD_ENABLE_US );  // kurze Pause
    LCD_PORT &= ~(1<<LCD_EN);    // Enable auf 0 setzen
 83e:	95 98       	cbi	0x12, 5	; 18
 840:	88 ea       	ldi	r24, 0xA8	; 168
 842:	8a 95       	dec	r24
 844:	f1 f7       	brne	.-4      	; 0x842 <lcd_init+0xde>
 
////////////////////////////////////////////////////////////////////////////////
// Sendet einen Befehl an das LCD
void lcd_command( uint8_t data )
{
    LCD_PORT &= ~(1<<LCD_RS);    // RS auf 0 setzen
 846:	94 98       	cbi	0x12, 4	; 18
// Sendet eine 4-bit Ausgabeoperation an das LCD
static void lcd_out( uint8_t data )
{
    data &= 0xF0;                       // obere 4 Bit maskieren
 
    LCD_PORT &= ~(0xF0>>(4-LCD_DB));    // Maske löschen
 848:	82 b3       	in	r24, 0x12	; 18
 84a:	80 7f       	andi	r24, 0xF0	; 240
 84c:	82 bb       	out	0x12, r24	; 18
    LCD_PORT |= (data>>(4-LCD_DB));     // Bits setzen
 84e:	82 b3       	in	r24, 0x12	; 18
 850:	82 bb       	out	0x12, r24	; 18
 
////////////////////////////////////////////////////////////////////////////////
// Erzeugt einen Enable-Puls
static void lcd_enable( void )
{
    LCD_PORT |= (1<<LCD_EN);     // Enable auf 1 setzen
 852:	95 9a       	sbi	0x12, 5	; 18
 854:	94 e0       	ldi	r25, 0x04	; 4
 856:	9a 95       	dec	r25
 858:	f1 f7       	brne	.-4      	; 0x856 <lcd_init+0xf2>
    _delay_us( LCD_ENABLE_US );  // kurze Pause
    LCD_PORT &= ~(1<<LCD_EN);    // Enable auf 0 setzen
 85a:	95 98       	cbi	0x12, 5	; 18
// Sendet eine 4-bit Ausgabeoperation an das LCD
static void lcd_out( uint8_t data )
{
    data &= 0xF0;                       // obere 4 Bit maskieren
 
    LCD_PORT &= ~(0xF0>>(4-LCD_DB));    // Maske löschen
 85c:	82 b3       	in	r24, 0x12	; 18
 85e:	80 7f       	andi	r24, 0xF0	; 240
 860:	82 bb       	out	0x12, r24	; 18
    LCD_PORT |= (data>>(4-LCD_DB));     // Bits setzen
 862:	82 b3       	in	r24, 0x12	; 18
 864:	86 60       	ori	r24, 0x06	; 6
 866:	82 bb       	out	0x12, r24	; 18
 
////////////////////////////////////////////////////////////////////////////////
// Erzeugt einen Enable-Puls
static void lcd_enable( void )
{
    LCD_PORT |= (1<<LCD_EN);     // Enable auf 1 setzen
 868:	95 9a       	sbi	0x12, 5	; 18
 86a:	84 e0       	ldi	r24, 0x04	; 4
 86c:	8a 95       	dec	r24
 86e:	f1 f7       	brne	.-4      	; 0x86c <lcd_init+0x108>
    _delay_us( LCD_ENABLE_US );  // kurze Pause
    LCD_PORT &= ~(1<<LCD_EN);    // Enable auf 0 setzen
 870:	95 98       	cbi	0x12, 5	; 18
 872:	98 ea       	ldi	r25, 0xA8	; 168
 874:	9a 95       	dec	r25
 876:	f1 f7       	brne	.-4      	; 0x874 <lcd_init+0x110>
 
////////////////////////////////////////////////////////////////////////////////
// Sendet einen Befehl an das LCD
void lcd_command( uint8_t data )
{
    LCD_PORT &= ~(1<<LCD_RS);    // RS auf 0 setzen
 878:	94 98       	cbi	0x12, 4	; 18
// Sendet eine 4-bit Ausgabeoperation an das LCD
static void lcd_out( uint8_t data )
{
    data &= 0xF0;                       // obere 4 Bit maskieren
 
    LCD_PORT &= ~(0xF0>>(4-LCD_DB));    // Maske löschen
 87a:	82 b3       	in	r24, 0x12	; 18
 87c:	80 7f       	andi	r24, 0xF0	; 240
 87e:	82 bb       	out	0x12, r24	; 18
    LCD_PORT |= (data>>(4-LCD_DB));     // Bits setzen
 880:	82 b3       	in	r24, 0x12	; 18
 882:	82 bb       	out	0x12, r24	; 18
 
////////////////////////////////////////////////////////////////////////////////
// Erzeugt einen Enable-Puls
static void lcd_enable( void )
{
    LCD_PORT |= (1<<LCD_EN);     // Enable auf 1 setzen
 884:	95 9a       	sbi	0x12, 5	; 18
 886:	84 e0       	ldi	r24, 0x04	; 4
 888:	8a 95       	dec	r24
 88a:	f1 f7       	brne	.-4      	; 0x888 <lcd_init+0x124>
    _delay_us( LCD_ENABLE_US );  // kurze Pause
    LCD_PORT &= ~(1<<LCD_EN);    // Enable auf 0 setzen
 88c:	95 98       	cbi	0x12, 5	; 18
// Sendet eine 4-bit Ausgabeoperation an das LCD
static void lcd_out( uint8_t data )
{
    data &= 0xF0;                       // obere 4 Bit maskieren
 
    LCD_PORT &= ~(0xF0>>(4-LCD_DB));    // Maske löschen
 88e:	82 b3       	in	r24, 0x12	; 18
 890:	80 7f       	andi	r24, 0xF0	; 240
 892:	82 bb       	out	0x12, r24	; 18
    LCD_PORT |= (data>>(4-LCD_DB));     // Bits setzen
 894:	90 9a       	sbi	0x12, 0	; 18
 
////////////////////////////////////////////////////////////////////////////////
// Erzeugt einen Enable-Puls
static void lcd_enable( void )
{
    LCD_PORT |= (1<<LCD_EN);     // Enable auf 1 setzen
 896:	95 9a       	sbi	0x12, 5	; 18
 898:	94 e0       	ldi	r25, 0x04	; 4
 89a:	9a 95       	dec	r25
 89c:	f1 f7       	brne	.-4      	; 0x89a <lcd_init+0x136>
    _delay_us( LCD_ENABLE_US );  // kurze Pause
    LCD_PORT &= ~(1<<LCD_EN);    // Enable auf 0 setzen
 89e:	95 98       	cbi	0x12, 5	; 18
 8a0:	88 ea       	ldi	r24, 0xA8	; 168
 8a2:	8a 95       	dec	r24
 8a4:	f1 f7       	brne	.-4      	; 0x8a2 <lcd_init+0x13e>
	#else
		//round up by default
		__ticks_dc = (uint32_t)(ceil(fabs(__tmp)));
	#endif

	__builtin_avr_delay_cycles(__ticks_dc);
 8a6:	8f e6       	ldi	r24, 0x6F	; 111
 8a8:	97 e1       	ldi	r25, 0x17	; 23
 8aa:	01 97       	sbiw	r24, 0x01	; 1
 8ac:	f1 f7       	brne	.-4      	; 0x8aa <lcd_init+0x146>
 8ae:	00 c0       	rjmp	.+0      	; 0x8b0 <lcd_init+0x14c>
 8b0:	00 00       	nop
    lcd_command( LCD_SET_ENTRY |
                 LCD_ENTRY_INCREASE |
                 LCD_ENTRY_NOSHIFT );
 
    lcd_clear();
}
 8b2:	08 95       	ret

000008b4 <lcd_data>:
  
////////////////////////////////////////////////////////////////////////////////
// Sendet ein Datenbyte an das LCD
void lcd_data( uint8_t data )
{
    LCD_PORT |= (1<<LCD_RS);    // RS auf 1 setzen
 8b4:	94 9a       	sbi	0x12, 4	; 18
// Sendet eine 4-bit Ausgabeoperation an das LCD
static void lcd_out( uint8_t data )
{
    data &= 0xF0;                       // obere 4 Bit maskieren
 
    LCD_PORT &= ~(0xF0>>(4-LCD_DB));    // Maske löschen
 8b6:	92 b3       	in	r25, 0x12	; 18
 8b8:	90 7f       	andi	r25, 0xF0	; 240
 8ba:	92 bb       	out	0x12, r25	; 18
    LCD_PORT |= (data>>(4-LCD_DB));     // Bits setzen
 8bc:	22 b3       	in	r18, 0x12	; 18
 8be:	98 2f       	mov	r25, r24
 8c0:	92 95       	swap	r25
 8c2:	9f 70       	andi	r25, 0x0F	; 15
 8c4:	92 2b       	or	r25, r18
 8c6:	92 bb       	out	0x12, r25	; 18
 
////////////////////////////////////////////////////////////////////////////////
// Erzeugt einen Enable-Puls
static void lcd_enable( void )
{
    LCD_PORT |= (1<<LCD_EN);     // Enable auf 1 setzen
 8c8:	95 9a       	sbi	0x12, 5	; 18
	#else
		//round up by default
		__ticks_dc = (uint32_t)(ceil(fabs(__tmp)));
	#endif

	__builtin_avr_delay_cycles(__ticks_dc);
 8ca:	94 e0       	ldi	r25, 0x04	; 4
 8cc:	9a 95       	dec	r25
 8ce:	f1 f7       	brne	.-4      	; 0x8cc <lcd_data+0x18>
    _delay_us( LCD_ENABLE_US );  // kurze Pause
    LCD_PORT &= ~(1<<LCD_EN);    // Enable auf 0 setzen
 8d0:	95 98       	cbi	0x12, 5	; 18
// Sendet eine 4-bit Ausgabeoperation an das LCD
static void lcd_out( uint8_t data )
{
    data &= 0xF0;                       // obere 4 Bit maskieren
 
    LCD_PORT &= ~(0xF0>>(4-LCD_DB));    // Maske löschen
 8d2:	92 b3       	in	r25, 0x12	; 18
 8d4:	90 7f       	andi	r25, 0xF0	; 240
 8d6:	92 bb       	out	0x12, r25	; 18
    LCD_PORT |= (data>>(4-LCD_DB));     // Bits setzen
 8d8:	92 b3       	in	r25, 0x12	; 18
 8da:	8f 70       	andi	r24, 0x0F	; 15
 8dc:	89 2b       	or	r24, r25
 8de:	82 bb       	out	0x12, r24	; 18
 
////////////////////////////////////////////////////////////////////////////////
// Erzeugt einen Enable-Puls
static void lcd_enable( void )
{
    LCD_PORT |= (1<<LCD_EN);     // Enable auf 1 setzen
 8e0:	95 9a       	sbi	0x12, 5	; 18
 8e2:	84 e0       	ldi	r24, 0x04	; 4
 8e4:	8a 95       	dec	r24
 8e6:	f1 f7       	brne	.-4      	; 0x8e4 <lcd_data+0x30>
    _delay_us( LCD_ENABLE_US );  // kurze Pause
    LCD_PORT &= ~(1<<LCD_EN);    // Enable auf 0 setzen
 8e8:	95 98       	cbi	0x12, 5	; 18
 8ea:	98 eb       	ldi	r25, 0xB8	; 184
 8ec:	9a 95       	dec	r25
 8ee:	f1 f7       	brne	.-4      	; 0x8ec <lcd_data+0x38>
 
    lcd_out( data );            // zuerst die oberen, 
    lcd_out( data<<4 );         // dann die unteren 4 Bit senden
 
    _delay_us( LCD_WRITEDATA_US );
}
 8f0:	08 95       	ret

000008f2 <lcd_command>:
 
////////////////////////////////////////////////////////////////////////////////
// Sendet einen Befehl an das LCD
void lcd_command( uint8_t data )
{
    LCD_PORT &= ~(1<<LCD_RS);    // RS auf 0 setzen
 8f2:	94 98       	cbi	0x12, 4	; 18
// Sendet eine 4-bit Ausgabeoperation an das LCD
static void lcd_out( uint8_t data )
{
    data &= 0xF0;                       // obere 4 Bit maskieren
 
    LCD_PORT &= ~(0xF0>>(4-LCD_DB));    // Maske löschen
 8f4:	92 b3       	in	r25, 0x12	; 18
 8f6:	90 7f       	andi	r25, 0xF0	; 240
 8f8:	92 bb       	out	0x12, r25	; 18
    LCD_PORT |= (data>>(4-LCD_DB));     // Bits setzen
 8fa:	22 b3       	in	r18, 0x12	; 18
 8fc:	98 2f       	mov	r25, r24
 8fe:	92 95       	swap	r25
 900:	9f 70       	andi	r25, 0x0F	; 15
 902:	92 2b       	or	r25, r18
 904:	92 bb       	out	0x12, r25	; 18
 
////////////////////////////////////////////////////////////////////////////////
// Erzeugt einen Enable-Puls
static void lcd_enable( void )
{
    LCD_PORT |= (1<<LCD_EN);     // Enable auf 1 setzen
 906:	95 9a       	sbi	0x12, 5	; 18
 908:	94 e0       	ldi	r25, 0x04	; 4
 90a:	9a 95       	dec	r25
 90c:	f1 f7       	brne	.-4      	; 0x90a <lcd_command+0x18>
    _delay_us( LCD_ENABLE_US );  // kurze Pause
    LCD_PORT &= ~(1<<LCD_EN);    // Enable auf 0 setzen
 90e:	95 98       	cbi	0x12, 5	; 18
// Sendet eine 4-bit Ausgabeoperation an das LCD
static void lcd_out( uint8_t data )
{
    data &= 0xF0;                       // obere 4 Bit maskieren
 
    LCD_PORT &= ~(0xF0>>(4-LCD_DB));    // Maske löschen
 910:	92 b3       	in	r25, 0x12	; 18
 912:	90 7f       	andi	r25, 0xF0	; 240
 914:	92 bb       	out	0x12, r25	; 18
    LCD_PORT |= (data>>(4-LCD_DB));     // Bits setzen
 916:	92 b3       	in	r25, 0x12	; 18
 918:	8f 70       	andi	r24, 0x0F	; 15
 91a:	89 2b       	or	r24, r25
 91c:	82 bb       	out	0x12, r24	; 18
 
////////////////////////////////////////////////////////////////////////////////
// Erzeugt einen Enable-Puls
static void lcd_enable( void )
{
    LCD_PORT |= (1<<LCD_EN);     // Enable auf 1 setzen
 91e:	95 9a       	sbi	0x12, 5	; 18
 920:	84 e0       	ldi	r24, 0x04	; 4
 922:	8a 95       	dec	r24
 924:	f1 f7       	brne	.-4      	; 0x922 <lcd_command+0x30>
    _delay_us( LCD_ENABLE_US );  // kurze Pause
    LCD_PORT &= ~(1<<LCD_EN);    // Enable auf 0 setzen
 926:	95 98       	cbi	0x12, 5	; 18
 928:	98 ea       	ldi	r25, 0xA8	; 168
 92a:	9a 95       	dec	r25
 92c:	f1 f7       	brne	.-4      	; 0x92a <lcd_command+0x38>
 
    lcd_out( data );             // zuerst die oberen, 
    lcd_out( data<<4 );           // dann die unteren 4 Bit senden
 
    _delay_us( LCD_COMMAND_US );
}
 92e:	08 95       	ret

00000930 <lcd_clear>:
 
////////////////////////////////////////////////////////////////////////////////
// Sendet einen Befehl an das LCD
void lcd_command( uint8_t data )
{
    LCD_PORT &= ~(1<<LCD_RS);    // RS auf 0 setzen
 930:	94 98       	cbi	0x12, 4	; 18
// Sendet eine 4-bit Ausgabeoperation an das LCD
static void lcd_out( uint8_t data )
{
    data &= 0xF0;                       // obere 4 Bit maskieren
 
    LCD_PORT &= ~(0xF0>>(4-LCD_DB));    // Maske löschen
 932:	82 b3       	in	r24, 0x12	; 18
 934:	80 7f       	andi	r24, 0xF0	; 240
 936:	82 bb       	out	0x12, r24	; 18
    LCD_PORT |= (data>>(4-LCD_DB));     // Bits setzen
 938:	82 b3       	in	r24, 0x12	; 18
 93a:	82 bb       	out	0x12, r24	; 18
 
////////////////////////////////////////////////////////////////////////////////
// Erzeugt einen Enable-Puls
static void lcd_enable( void )
{
    LCD_PORT |= (1<<LCD_EN);     // Enable auf 1 setzen
 93c:	95 9a       	sbi	0x12, 5	; 18
 93e:	84 e0       	ldi	r24, 0x04	; 4
 940:	8a 95       	dec	r24
 942:	f1 f7       	brne	.-4      	; 0x940 <lcd_clear+0x10>
    _delay_us( LCD_ENABLE_US );  // kurze Pause
    LCD_PORT &= ~(1<<LCD_EN);    // Enable auf 0 setzen
 944:	95 98       	cbi	0x12, 5	; 18
// Sendet eine 4-bit Ausgabeoperation an das LCD
static void lcd_out( uint8_t data )
{
    data &= 0xF0;                       // obere 4 Bit maskieren
 
    LCD_PORT &= ~(0xF0>>(4-LCD_DB));    // Maske löschen
 946:	82 b3       	in	r24, 0x12	; 18
 948:	80 7f       	andi	r24, 0xF0	; 240
 94a:	82 bb       	out	0x12, r24	; 18
    LCD_PORT |= (data>>(4-LCD_DB));     // Bits setzen
 94c:	90 9a       	sbi	0x12, 0	; 18
 
////////////////////////////////////////////////////////////////////////////////
// Erzeugt einen Enable-Puls
static void lcd_enable( void )
{
    LCD_PORT |= (1<<LCD_EN);     // Enable auf 1 setzen
 94e:	95 9a       	sbi	0x12, 5	; 18
 950:	94 e0       	ldi	r25, 0x04	; 4
 952:	9a 95       	dec	r25
 954:	f1 f7       	brne	.-4      	; 0x952 <lcd_clear+0x22>
    _delay_us( LCD_ENABLE_US );  // kurze Pause
    LCD_PORT &= ~(1<<LCD_EN);    // Enable auf 0 setzen
 956:	95 98       	cbi	0x12, 5	; 18
 958:	88 ea       	ldi	r24, 0xA8	; 168
 95a:	8a 95       	dec	r24
 95c:	f1 f7       	brne	.-4      	; 0x95a <lcd_clear+0x2a>
	#else
		//round up by default
		__ticks_dc = (uint32_t)(ceil(fabs(__tmp)));
	#endif

	__builtin_avr_delay_cycles(__ticks_dc);
 95e:	8f e6       	ldi	r24, 0x6F	; 111
 960:	97 e1       	ldi	r25, 0x17	; 23
 962:	01 97       	sbiw	r24, 0x01	; 1
 964:	f1 f7       	brne	.-4      	; 0x962 <lcd_clear+0x32>
 966:	00 c0       	rjmp	.+0      	; 0x968 <lcd_clear+0x38>
 968:	00 00       	nop
// Sendet den Befehl zur Löschung des Displays
void lcd_clear( void )
{
    lcd_command( LCD_CLEAR_DISPLAY );
    _delay_ms( LCD_CLEAR_DISPLAY_MS );
}
 96a:	08 95       	ret

0000096c <lcd_home>:
 
////////////////////////////////////////////////////////////////////////////////
// Sendet einen Befehl an das LCD
void lcd_command( uint8_t data )
{
    LCD_PORT &= ~(1<<LCD_RS);    // RS auf 0 setzen
 96c:	94 98       	cbi	0x12, 4	; 18
// Sendet eine 4-bit Ausgabeoperation an das LCD
static void lcd_out( uint8_t data )
{
    data &= 0xF0;                       // obere 4 Bit maskieren
 
    LCD_PORT &= ~(0xF0>>(4-LCD_DB));    // Maske löschen
 96e:	82 b3       	in	r24, 0x12	; 18
 970:	80 7f       	andi	r24, 0xF0	; 240
 972:	82 bb       	out	0x12, r24	; 18
    LCD_PORT |= (data>>(4-LCD_DB));     // Bits setzen
 974:	82 b3       	in	r24, 0x12	; 18
 976:	82 bb       	out	0x12, r24	; 18
 
////////////////////////////////////////////////////////////////////////////////
// Erzeugt einen Enable-Puls
static void lcd_enable( void )
{
    LCD_PORT |= (1<<LCD_EN);     // Enable auf 1 setzen
 978:	95 9a       	sbi	0x12, 5	; 18
	#else
		//round up by default
		__ticks_dc = (uint32_t)(ceil(fabs(__tmp)));
	#endif

	__builtin_avr_delay_cycles(__ticks_dc);
 97a:	84 e0       	ldi	r24, 0x04	; 4
 97c:	8a 95       	dec	r24
 97e:	f1 f7       	brne	.-4      	; 0x97c <lcd_home+0x10>
    _delay_us( LCD_ENABLE_US );  // kurze Pause
    LCD_PORT &= ~(1<<LCD_EN);    // Enable auf 0 setzen
 980:	95 98       	cbi	0x12, 5	; 18
// Sendet eine 4-bit Ausgabeoperation an das LCD
static void lcd_out( uint8_t data )
{
    data &= 0xF0;                       // obere 4 Bit maskieren
 
    LCD_PORT &= ~(0xF0>>(4-LCD_DB));    // Maske löschen
 982:	82 b3       	in	r24, 0x12	; 18
 984:	80 7f       	andi	r24, 0xF0	; 240
 986:	82 bb       	out	0x12, r24	; 18
    LCD_PORT |= (data>>(4-LCD_DB));     // Bits setzen
 988:	91 9a       	sbi	0x12, 1	; 18
 
////////////////////////////////////////////////////////////////////////////////
// Erzeugt einen Enable-Puls
static void lcd_enable( void )
{
    LCD_PORT |= (1<<LCD_EN);     // Enable auf 1 setzen
 98a:	95 9a       	sbi	0x12, 5	; 18
 98c:	94 e0       	ldi	r25, 0x04	; 4
 98e:	9a 95       	dec	r25
 990:	f1 f7       	brne	.-4      	; 0x98e <lcd_home+0x22>
    _delay_us( LCD_ENABLE_US );  // kurze Pause
    LCD_PORT &= ~(1<<LCD_EN);    // Enable auf 0 setzen
 992:	95 98       	cbi	0x12, 5	; 18
 994:	88 ea       	ldi	r24, 0xA8	; 168
 996:	8a 95       	dec	r24
 998:	f1 f7       	brne	.-4      	; 0x996 <lcd_home+0x2a>
	#else
		//round up by default
		__ticks_dc = (uint32_t)(ceil(fabs(__tmp)));
	#endif

	__builtin_avr_delay_cycles(__ticks_dc);
 99a:	8f e6       	ldi	r24, 0x6F	; 111
 99c:	97 e1       	ldi	r25, 0x17	; 23
 99e:	01 97       	sbiw	r24, 0x01	; 1
 9a0:	f1 f7       	brne	.-4      	; 0x99e <lcd_home+0x32>
 9a2:	00 c0       	rjmp	.+0      	; 0x9a4 <lcd_home+0x38>
 9a4:	00 00       	nop
// Sendet den Befehl: Cursor Home
void lcd_home( void )
{
    lcd_command( LCD_CURSOR_HOME );
    _delay_ms( LCD_CURSOR_HOME_MS );
}
 9a6:	08 95       	ret

000009a8 <lcd_setcursor>:
 
void lcd_setcursor( uint8_t x, uint8_t y )
{
    uint8_t data;
 
    switch (y)
 9a8:	62 30       	cpi	r22, 0x02	; 2
 9aa:	59 f1       	breq	.+86     	; 0xa02 <lcd_setcursor+0x5a>
 9ac:	63 30       	cpi	r22, 0x03	; 3
 9ae:	28 f0       	brcs	.+10     	; 0x9ba <lcd_setcursor+0x12>
 9b0:	63 30       	cpi	r22, 0x03	; 3
 9b2:	49 f1       	breq	.+82     	; 0xa06 <lcd_setcursor+0x5e>
 9b4:	64 30       	cpi	r22, 0x04	; 4
 9b6:	19 f1       	breq	.+70     	; 0x9fe <lcd_setcursor+0x56>
 9b8:	08 95       	ret
 9ba:	61 30       	cpi	r22, 0x01	; 1
 9bc:	e9 f7       	brne	.-6      	; 0x9b8 <lcd_setcursor+0x10>
    {
        case 1:    // 1. Zeile
            data = LCD_SET_DDADR + LCD_DDADR_LINE1 + x;
 9be:	80 58       	subi	r24, 0x80	; 128
 
////////////////////////////////////////////////////////////////////////////////
// Sendet einen Befehl an das LCD
void lcd_command( uint8_t data )
{
    LCD_PORT &= ~(1<<LCD_RS);    // RS auf 0 setzen
 9c0:	94 98       	cbi	0x12, 4	; 18
// Sendet eine 4-bit Ausgabeoperation an das LCD
static void lcd_out( uint8_t data )
{
    data &= 0xF0;                       // obere 4 Bit maskieren
 
    LCD_PORT &= ~(0xF0>>(4-LCD_DB));    // Maske löschen
 9c2:	92 b3       	in	r25, 0x12	; 18
 9c4:	90 7f       	andi	r25, 0xF0	; 240
 9c6:	92 bb       	out	0x12, r25	; 18
    LCD_PORT |= (data>>(4-LCD_DB));     // Bits setzen
 9c8:	22 b3       	in	r18, 0x12	; 18
 9ca:	98 2f       	mov	r25, r24
 9cc:	92 95       	swap	r25
 9ce:	9f 70       	andi	r25, 0x0F	; 15
 9d0:	92 2b       	or	r25, r18
 9d2:	92 bb       	out	0x12, r25	; 18
 
////////////////////////////////////////////////////////////////////////////////
// Erzeugt einen Enable-Puls
static void lcd_enable( void )
{
    LCD_PORT |= (1<<LCD_EN);     // Enable auf 1 setzen
 9d4:	95 9a       	sbi	0x12, 5	; 18
	#else
		//round up by default
		__ticks_dc = (uint32_t)(ceil(fabs(__tmp)));
	#endif

	__builtin_avr_delay_cycles(__ticks_dc);
 9d6:	94 e0       	ldi	r25, 0x04	; 4
 9d8:	9a 95       	dec	r25
 9da:	f1 f7       	brne	.-4      	; 0x9d8 <lcd_setcursor+0x30>
    _delay_us( LCD_ENABLE_US );  // kurze Pause
    LCD_PORT &= ~(1<<LCD_EN);    // Enable auf 0 setzen
 9dc:	95 98       	cbi	0x12, 5	; 18
// Sendet eine 4-bit Ausgabeoperation an das LCD
static void lcd_out( uint8_t data )
{
    data &= 0xF0;                       // obere 4 Bit maskieren
 
    LCD_PORT &= ~(0xF0>>(4-LCD_DB));    // Maske löschen
 9de:	92 b3       	in	r25, 0x12	; 18
 9e0:	90 7f       	andi	r25, 0xF0	; 240
 9e2:	92 bb       	out	0x12, r25	; 18
    LCD_PORT |= (data>>(4-LCD_DB));     // Bits setzen
 9e4:	92 b3       	in	r25, 0x12	; 18
 9e6:	8f 70       	andi	r24, 0x0F	; 15
 9e8:	89 2b       	or	r24, r25
 9ea:	82 bb       	out	0x12, r24	; 18
 
////////////////////////////////////////////////////////////////////////////////
// Erzeugt einen Enable-Puls
static void lcd_enable( void )
{
    LCD_PORT |= (1<<LCD_EN);     // Enable auf 1 setzen
 9ec:	95 9a       	sbi	0x12, 5	; 18
 9ee:	84 e0       	ldi	r24, 0x04	; 4
 9f0:	8a 95       	dec	r24
 9f2:	f1 f7       	brne	.-4      	; 0x9f0 <lcd_setcursor+0x48>
    _delay_us( LCD_ENABLE_US );  // kurze Pause
    LCD_PORT &= ~(1<<LCD_EN);    // Enable auf 0 setzen
 9f4:	95 98       	cbi	0x12, 5	; 18
 9f6:	98 ea       	ldi	r25, 0xA8	; 168
 9f8:	9a 95       	dec	r25
 9fa:	f1 f7       	brne	.-4      	; 0x9f8 <lcd_setcursor+0x50>
 9fc:	08 95       	ret
        case 3:    // 3. Zeile
            data = LCD_SET_DDADR + LCD_DDADR_LINE3 + x;
            break;
 
        case 4:    // 4. Zeile
            data = LCD_SET_DDADR + LCD_DDADR_LINE4 + x;
 9fe:	80 53       	subi	r24, 0x30	; 48
            break;
 a00:	df cf       	rjmp	.-66     	; 0x9c0 <lcd_setcursor+0x18>
        case 1:    // 1. Zeile
            data = LCD_SET_DDADR + LCD_DDADR_LINE1 + x;
            break;
 
        case 2:    // 2. Zeile
            data = LCD_SET_DDADR + LCD_DDADR_LINE2 + x;
 a02:	80 54       	subi	r24, 0x40	; 64
            break;
 a04:	dd cf       	rjmp	.-70     	; 0x9c0 <lcd_setcursor+0x18>
 
        case 3:    // 3. Zeile
            data = LCD_SET_DDADR + LCD_DDADR_LINE3 + x;
 a06:	80 57       	subi	r24, 0x70	; 112
            break;
 a08:	db cf       	rjmp	.-74     	; 0x9c0 <lcd_setcursor+0x18>

00000a0a <lcd_string>:
 
////////////////////////////////////////////////////////////////////////////////
// Schreibt einen String auf das LCD
 
void lcd_string( const char *data )
{
 a0a:	fc 01       	movw	r30, r24
    while( *data != '\0' )
 a0c:	80 81       	ld	r24, Z
 a0e:	88 23       	and	r24, r24
 a10:	11 f1       	breq	.+68     	; 0xa56 <lcd_string+0x4c>
}
 
////////////////////////////////////////////////////////////////////////////////
// Schreibt einen String auf das LCD
 
void lcd_string( const char *data )
 a12:	31 96       	adiw	r30, 0x01	; 1
  
////////////////////////////////////////////////////////////////////////////////
// Sendet ein Datenbyte an das LCD
void lcd_data( uint8_t data )
{
    LCD_PORT |= (1<<LCD_RS);    // RS auf 1 setzen
 a14:	94 9a       	sbi	0x12, 4	; 18
// Sendet eine 4-bit Ausgabeoperation an das LCD
static void lcd_out( uint8_t data )
{
    data &= 0xF0;                       // obere 4 Bit maskieren
 
    LCD_PORT &= ~(0xF0>>(4-LCD_DB));    // Maske löschen
 a16:	92 b3       	in	r25, 0x12	; 18
 a18:	90 7f       	andi	r25, 0xF0	; 240
 a1a:	92 bb       	out	0x12, r25	; 18
    LCD_PORT |= (data>>(4-LCD_DB));     // Bits setzen
 a1c:	22 b3       	in	r18, 0x12	; 18
 a1e:	98 2f       	mov	r25, r24
 a20:	92 95       	swap	r25
 a22:	9f 70       	andi	r25, 0x0F	; 15
 a24:	92 2b       	or	r25, r18
 a26:	92 bb       	out	0x12, r25	; 18
 
////////////////////////////////////////////////////////////////////////////////
// Erzeugt einen Enable-Puls
static void lcd_enable( void )
{
    LCD_PORT |= (1<<LCD_EN);     // Enable auf 1 setzen
 a28:	95 9a       	sbi	0x12, 5	; 18
 a2a:	94 e0       	ldi	r25, 0x04	; 4
 a2c:	9a 95       	dec	r25
 a2e:	f1 f7       	brne	.-4      	; 0xa2c <lcd_string+0x22>
    _delay_us( LCD_ENABLE_US );  // kurze Pause
    LCD_PORT &= ~(1<<LCD_EN);    // Enable auf 0 setzen
 a30:	95 98       	cbi	0x12, 5	; 18
// Sendet eine 4-bit Ausgabeoperation an das LCD
static void lcd_out( uint8_t data )
{
    data &= 0xF0;                       // obere 4 Bit maskieren
 
    LCD_PORT &= ~(0xF0>>(4-LCD_DB));    // Maske löschen
 a32:	92 b3       	in	r25, 0x12	; 18
 a34:	90 7f       	andi	r25, 0xF0	; 240
 a36:	92 bb       	out	0x12, r25	; 18
    LCD_PORT |= (data>>(4-LCD_DB));     // Bits setzen
 a38:	92 b3       	in	r25, 0x12	; 18
 a3a:	8f 70       	andi	r24, 0x0F	; 15
 a3c:	89 2b       	or	r24, r25
 a3e:	82 bb       	out	0x12, r24	; 18
 
////////////////////////////////////////////////////////////////////////////////
// Erzeugt einen Enable-Puls
static void lcd_enable( void )
{
    LCD_PORT |= (1<<LCD_EN);     // Enable auf 1 setzen
 a40:	95 9a       	sbi	0x12, 5	; 18
 a42:	84 e0       	ldi	r24, 0x04	; 4
 a44:	8a 95       	dec	r24
 a46:	f1 f7       	brne	.-4      	; 0xa44 <lcd_string+0x3a>
    _delay_us( LCD_ENABLE_US );  // kurze Pause
    LCD_PORT &= ~(1<<LCD_EN);    // Enable auf 0 setzen
 a48:	95 98       	cbi	0x12, 5	; 18
 a4a:	98 eb       	ldi	r25, 0xB8	; 184
 a4c:	9a 95       	dec	r25
 a4e:	f1 f7       	brne	.-4      	; 0xa4c <lcd_string+0x42>
////////////////////////////////////////////////////////////////////////////////
// Schreibt einen String auf das LCD
 
void lcd_string( const char *data )
{
    while( *data != '\0' )
 a50:	81 91       	ld	r24, Z+
 a52:	88 23       	and	r24, r24
 a54:	f9 f6       	brne	.-66     	; 0xa14 <lcd_string+0xa>
 a56:	08 95       	ret

00000a58 <__udivmodhi4>:
 a58:	aa 1b       	sub	r26, r26
 a5a:	bb 1b       	sub	r27, r27
 a5c:	51 e1       	ldi	r21, 0x11	; 17
 a5e:	07 c0       	rjmp	.+14     	; 0xa6e <__udivmodhi4_ep>

00000a60 <__udivmodhi4_loop>:
 a60:	aa 1f       	adc	r26, r26
 a62:	bb 1f       	adc	r27, r27
 a64:	a6 17       	cp	r26, r22
 a66:	b7 07       	cpc	r27, r23
 a68:	10 f0       	brcs	.+4      	; 0xa6e <__udivmodhi4_ep>
 a6a:	a6 1b       	sub	r26, r22
 a6c:	b7 0b       	sbc	r27, r23

00000a6e <__udivmodhi4_ep>:
 a6e:	88 1f       	adc	r24, r24
 a70:	99 1f       	adc	r25, r25
 a72:	5a 95       	dec	r21
 a74:	a9 f7       	brne	.-22     	; 0xa60 <__udivmodhi4_loop>
 a76:	80 95       	com	r24
 a78:	90 95       	com	r25
 a7a:	bc 01       	movw	r22, r24
 a7c:	cd 01       	movw	r24, r26
 a7e:	08 95       	ret

00000a80 <__divmodsi4>:
 a80:	97 fb       	bst	r25, 7
 a82:	09 2e       	mov	r0, r25
 a84:	05 26       	eor	r0, r21
 a86:	0e d0       	rcall	.+28     	; 0xaa4 <__divmodsi4_neg1>
 a88:	57 fd       	sbrc	r21, 7
 a8a:	04 d0       	rcall	.+8      	; 0xa94 <__divmodsi4_neg2>
 a8c:	14 d0       	rcall	.+40     	; 0xab6 <__udivmodsi4>
 a8e:	0a d0       	rcall	.+20     	; 0xaa4 <__divmodsi4_neg1>
 a90:	00 1c       	adc	r0, r0
 a92:	38 f4       	brcc	.+14     	; 0xaa2 <__divmodsi4_exit>

00000a94 <__divmodsi4_neg2>:
 a94:	50 95       	com	r21
 a96:	40 95       	com	r20
 a98:	30 95       	com	r19
 a9a:	21 95       	neg	r18
 a9c:	3f 4f       	sbci	r19, 0xFF	; 255
 a9e:	4f 4f       	sbci	r20, 0xFF	; 255
 aa0:	5f 4f       	sbci	r21, 0xFF	; 255

00000aa2 <__divmodsi4_exit>:
 aa2:	08 95       	ret

00000aa4 <__divmodsi4_neg1>:
 aa4:	f6 f7       	brtc	.-4      	; 0xaa2 <__divmodsi4_exit>
 aa6:	90 95       	com	r25
 aa8:	80 95       	com	r24
 aaa:	70 95       	com	r23
 aac:	61 95       	neg	r22
 aae:	7f 4f       	sbci	r23, 0xFF	; 255
 ab0:	8f 4f       	sbci	r24, 0xFF	; 255
 ab2:	9f 4f       	sbci	r25, 0xFF	; 255
 ab4:	08 95       	ret

00000ab6 <__udivmodsi4>:
 ab6:	a1 e2       	ldi	r26, 0x21	; 33
 ab8:	1a 2e       	mov	r1, r26
 aba:	aa 1b       	sub	r26, r26
 abc:	bb 1b       	sub	r27, r27
 abe:	fd 01       	movw	r30, r26
 ac0:	0d c0       	rjmp	.+26     	; 0xadc <__udivmodsi4_ep>

00000ac2 <__udivmodsi4_loop>:
 ac2:	aa 1f       	adc	r26, r26
 ac4:	bb 1f       	adc	r27, r27
 ac6:	ee 1f       	adc	r30, r30
 ac8:	ff 1f       	adc	r31, r31
 aca:	a2 17       	cp	r26, r18
 acc:	b3 07       	cpc	r27, r19
 ace:	e4 07       	cpc	r30, r20
 ad0:	f5 07       	cpc	r31, r21
 ad2:	20 f0       	brcs	.+8      	; 0xadc <__udivmodsi4_ep>
 ad4:	a2 1b       	sub	r26, r18
 ad6:	b3 0b       	sbc	r27, r19
 ad8:	e4 0b       	sbc	r30, r20
 ada:	f5 0b       	sbc	r31, r21

00000adc <__udivmodsi4_ep>:
 adc:	66 1f       	adc	r22, r22
 ade:	77 1f       	adc	r23, r23
 ae0:	88 1f       	adc	r24, r24
 ae2:	99 1f       	adc	r25, r25
 ae4:	1a 94       	dec	r1
 ae6:	69 f7       	brne	.-38     	; 0xac2 <__udivmodsi4_loop>
 ae8:	60 95       	com	r22
 aea:	70 95       	com	r23
 aec:	80 95       	com	r24
 aee:	90 95       	com	r25
 af0:	9b 01       	movw	r18, r22
 af2:	ac 01       	movw	r20, r24
 af4:	bd 01       	movw	r22, r26
 af6:	cf 01       	movw	r24, r30
 af8:	08 95       	ret

00000afa <itoa>:
 afa:	fb 01       	movw	r30, r22
 afc:	9f 01       	movw	r18, r30
 afe:	e8 94       	clt
 b00:	42 30       	cpi	r20, 0x02	; 2
 b02:	bc f0       	brlt	.+46     	; 0xb32 <itoa+0x38>
 b04:	45 32       	cpi	r20, 0x25	; 37
 b06:	ac f4       	brge	.+42     	; 0xb32 <itoa+0x38>
 b08:	4a 30       	cpi	r20, 0x0A	; 10
 b0a:	29 f4       	brne	.+10     	; 0xb16 <itoa+0x1c>
 b0c:	97 fb       	bst	r25, 7
 b0e:	1e f4       	brtc	.+6      	; 0xb16 <itoa+0x1c>
 b10:	90 95       	com	r25
 b12:	81 95       	neg	r24
 b14:	9f 4f       	sbci	r25, 0xFF	; 255
 b16:	64 2f       	mov	r22, r20
 b18:	77 27       	eor	r23, r23
 b1a:	9e df       	rcall	.-196    	; 0xa58 <__udivmodhi4>
 b1c:	80 5d       	subi	r24, 0xD0	; 208
 b1e:	8a 33       	cpi	r24, 0x3A	; 58
 b20:	0c f0       	brlt	.+2      	; 0xb24 <itoa+0x2a>
 b22:	89 5d       	subi	r24, 0xD9	; 217
 b24:	81 93       	st	Z+, r24
 b26:	cb 01       	movw	r24, r22
 b28:	00 97       	sbiw	r24, 0x00	; 0
 b2a:	a9 f7       	brne	.-22     	; 0xb16 <itoa+0x1c>
 b2c:	16 f4       	brtc	.+4      	; 0xb32 <itoa+0x38>
 b2e:	5d e2       	ldi	r21, 0x2D	; 45
 b30:	51 93       	st	Z+, r21
 b32:	10 82       	st	Z, r1
 b34:	c9 01       	movw	r24, r18
 b36:	00 c0       	rjmp	.+0      	; 0xb38 <strrev>

00000b38 <strrev>:
 b38:	dc 01       	movw	r26, r24
 b3a:	fc 01       	movw	r30, r24
 b3c:	67 2f       	mov	r22, r23
 b3e:	71 91       	ld	r23, Z+
 b40:	77 23       	and	r23, r23
 b42:	e1 f7       	brne	.-8      	; 0xb3c <strrev+0x4>
 b44:	32 97       	sbiw	r30, 0x02	; 2
 b46:	04 c0       	rjmp	.+8      	; 0xb50 <strrev+0x18>
 b48:	7c 91       	ld	r23, X
 b4a:	6d 93       	st	X+, r22
 b4c:	70 83       	st	Z, r23
 b4e:	62 91       	ld	r22, -Z
 b50:	ae 17       	cp	r26, r30
 b52:	bf 07       	cpc	r27, r31
 b54:	c8 f3       	brcs	.-14     	; 0xb48 <strrev+0x10>
 b56:	08 95       	ret

00000b58 <_exit>:
 b58:	f8 94       	cli

00000b5a <__stop_program>:
 b5a:	ff cf       	rjmp	.-2      	; 0xb5a <__stop_program>
