
Laderegler.elf:     file format elf32-avr

Sections:
Idx Name          Size      VMA       LMA       File off  Algn
  0 .text         000008a4  00000000  00000000  00000094  2**1
                  CONTENTS, ALLOC, LOAD, READONLY, CODE
  1 .data         0000001c  00800060  000008a4  00000938  2**0
                  CONTENTS, ALLOC, LOAD, DATA
  2 .bss          00000003  0080007c  0080007c  00000954  2**0
                  ALLOC
  3 .stab         00002478  00000000  00000000  00000954  2**2
                  CONTENTS, READONLY, DEBUGGING
  4 .stabstr      00000c71  00000000  00000000  00002dcc  2**0
                  CONTENTS, READONLY, DEBUGGING

Disassembly of section .text:

00000000 <__vectors>:
   0:	12 c0       	rjmp	.+36     	; 0x26 <__ctors_end>
   2:	2c c0       	rjmp	.+88     	; 0x5c <__bad_interrupt>
   4:	2b c0       	rjmp	.+86     	; 0x5c <__bad_interrupt>
   6:	2a c0       	rjmp	.+84     	; 0x5c <__bad_interrupt>
   8:	29 c0       	rjmp	.+82     	; 0x5c <__bad_interrupt>
   a:	28 c0       	rjmp	.+80     	; 0x5c <__bad_interrupt>
   c:	27 c0       	rjmp	.+78     	; 0x5c <__bad_interrupt>
   e:	26 c0       	rjmp	.+76     	; 0x5c <__bad_interrupt>
  10:	25 c0       	rjmp	.+74     	; 0x5c <__bad_interrupt>
  12:	e8 c1       	rjmp	.+976    	; 0x3e4 <__vector_9>
  14:	23 c0       	rjmp	.+70     	; 0x5c <__bad_interrupt>
  16:	22 c0       	rjmp	.+68     	; 0x5c <__bad_interrupt>
  18:	21 c0       	rjmp	.+66     	; 0x5c <__bad_interrupt>
  1a:	20 c0       	rjmp	.+64     	; 0x5c <__bad_interrupt>
  1c:	1f c0       	rjmp	.+62     	; 0x5c <__bad_interrupt>
  1e:	1e c0       	rjmp	.+60     	; 0x5c <__bad_interrupt>
  20:	1d c0       	rjmp	.+58     	; 0x5c <__bad_interrupt>
  22:	1c c0       	rjmp	.+56     	; 0x5c <__bad_interrupt>
  24:	1b c0       	rjmp	.+54     	; 0x5c <__bad_interrupt>

00000026 <__ctors_end>:
  26:	11 24       	eor	r1, r1
  28:	1f be       	out	0x3f, r1	; 63
  2a:	cf e5       	ldi	r28, 0x5F	; 95
  2c:	d4 e0       	ldi	r29, 0x04	; 4
  2e:	de bf       	out	0x3e, r29	; 62
  30:	cd bf       	out	0x3d, r28	; 61

00000032 <__do_copy_data>:
  32:	10 e0       	ldi	r17, 0x00	; 0
  34:	a0 e6       	ldi	r26, 0x60	; 96
  36:	b0 e0       	ldi	r27, 0x00	; 0
  38:	e4 ea       	ldi	r30, 0xA4	; 164
  3a:	f8 e0       	ldi	r31, 0x08	; 8
  3c:	02 c0       	rjmp	.+4      	; 0x42 <__SREG__+0x3>
  3e:	05 90       	lpm	r0, Z+
  40:	0d 92       	st	X+, r0
  42:	ac 37       	cpi	r26, 0x7C	; 124
  44:	b1 07       	cpc	r27, r17
  46:	d9 f7       	brne	.-10     	; 0x3e <__SP_H__>

00000048 <__do_clear_bss>:
  48:	10 e0       	ldi	r17, 0x00	; 0
  4a:	ac e7       	ldi	r26, 0x7C	; 124
  4c:	b0 e0       	ldi	r27, 0x00	; 0
  4e:	01 c0       	rjmp	.+2      	; 0x52 <.do_clear_bss_start>

00000050 <.do_clear_bss_loop>:
  50:	1d 92       	st	X+, r1

00000052 <.do_clear_bss_start>:
  52:	af 37       	cpi	r26, 0x7F	; 127
  54:	b1 07       	cpc	r27, r17
  56:	e1 f7       	brne	.-8      	; 0x50 <.do_clear_bss_loop>
  58:	94 d0       	rcall	.+296    	; 0x182 <main>
  5a:	22 c4       	rjmp	.+2116   	; 0x8a0 <_exit>

0000005c <__bad_interrupt>:
  5c:	d1 cf       	rjmp	.-94     	; 0x0 <__vectors>

0000005e <Display.clone.0>:
        }


    }
}
uint8_t Display(uint8_t modus, uint8_t status){
  5e:	af 92       	push	r10
  60:	bf 92       	push	r11
  62:	df 92       	push	r13
  64:	ef 92       	push	r14
  66:	ff 92       	push	r15
  68:	0f 93       	push	r16
  6a:	1f 93       	push	r17
  6c:	df 93       	push	r29
  6e:	cf 93       	push	r28
  70:	cd b7       	in	r28, 0x3d	; 61
  72:	de b7       	in	r29, 0x3e	; 62
  74:	64 97       	sbiw	r28, 0x14	; 20
  76:	0f b6       	in	r0, 0x3f	; 63
  78:	f8 94       	cli
  7a:	de bf       	out	0x3e, r29	; 62
  7c:	0f be       	out	0x3f, r0	; 63
  7e:	cd bf       	out	0x3d, r28	; 61
  80:	d8 2e       	mov	r13, r24

    uint16_t zeig;
    char Buffer[20];

    if (PINB & (1<<PB2)) //Displaybeleuchtung an
  82:	b2 9b       	sbis	0x16, 2	; 22
  84:	73 c0       	rjmp	.+230    	; 0x16c <Display.clone.0+0x10e>
    {
        if (!status){
  86:	88 23       	and	r24, r24
  88:	09 f4       	brne	.+2      	; 0x8c <Display.clone.0+0x2e>
  8a:	76 c0       	rjmp	.+236    	; 0x178 <Display.clone.0+0x11a>
            status=1;
        }

        switch (modus){
        case 0:
            lcd_setcursor(0,1);
  8c:	80 e0       	ldi	r24, 0x00	; 0
  8e:	61 e0       	ldi	r22, 0x01	; 1
  90:	2f d3       	rcall	.+1630   	; 0x6f0 <lcd_setcursor>
            lcd_string( "U_Sol" );
  92:	80 e6       	ldi	r24, 0x60	; 96
  94:	90 e0       	ldi	r25, 0x00	; 0
  96:	5d d3       	rcall	.+1722   	; 0x752 <lcd_string>

            lcd_setcursor(9,1);
  98:	89 e0       	ldi	r24, 0x09	; 9
  9a:	61 e0       	ldi	r22, 0x01	; 1
  9c:	29 d3       	rcall	.+1618   	; 0x6f0 <lcd_setcursor>
            lcd_string( "U_Bat" );
  9e:	86 e6       	ldi	r24, 0x66	; 102
  a0:	90 e0       	ldi	r25, 0x00	; 0
  a2:	57 d3       	rcall	.+1710   	; 0x752 <lcd_string>

            zeig=U_SOL*25;
  a4:	80 e0       	ldi	r24, 0x00	; 0
  a6:	ca d1       	rcall	.+916    	; 0x43c <ADC_Read>
  a8:	8c 01       	movw	r16, r24
  aa:	00 0f       	add	r16, r16
  ac:	11 1f       	adc	r17, r17
  ae:	08 0f       	add	r16, r24
  b0:	19 1f       	adc	r17, r25
  b2:	00 0f       	add	r16, r16
  b4:	11 1f       	adc	r17, r17
  b6:	00 0f       	add	r16, r16
  b8:	11 1f       	adc	r17, r17
  ba:	00 0f       	add	r16, r16
  bc:	11 1f       	adc	r17, r17
  be:	08 0f       	add	r16, r24
  c0:	19 1f       	adc	r17, r25

            lcd_setcursor(0,2);
  c2:	80 e0       	ldi	r24, 0x00	; 0
  c4:	62 e0       	ldi	r22, 0x02	; 2
  c6:	14 d3       	rcall	.+1576   	; 0x6f0 <lcd_setcursor>
            itoa( (zeig/1000), Buffer, 10 );
  c8:	48 ee       	ldi	r20, 0xE8	; 232
  ca:	a4 2e       	mov	r10, r20
  cc:	43 e0       	ldi	r20, 0x03	; 3
  ce:	b4 2e       	mov	r11, r20
  d0:	c8 01       	movw	r24, r16
  d2:	b5 01       	movw	r22, r10
  d4:	65 d3       	rcall	.+1738   	; 0x7a0 <__udivmodhi4>
  d6:	7c 01       	movw	r14, r24
  d8:	cb 01       	movw	r24, r22
  da:	8e 01       	movw	r16, r28
  dc:	0f 5f       	subi	r16, 0xFF	; 255
  de:	1f 4f       	sbci	r17, 0xFF	; 255
  e0:	b8 01       	movw	r22, r16
  e2:	4a e0       	ldi	r20, 0x0A	; 10
  e4:	50 e0       	ldi	r21, 0x00	; 0
  e6:	ad d3       	rcall	.+1882   	; 0x842 <itoa>
            lcd_string( Buffer );
  e8:	c8 01       	movw	r24, r16
  ea:	33 d3       	rcall	.+1638   	; 0x752 <lcd_string>
            lcd_data(0x2c);
  ec:	8c e2       	ldi	r24, 0x2C	; 44
  ee:	86 d2       	rcall	.+1292   	; 0x5fc <lcd_data>
            itoa( (zeig-((zeig/1000)*1000)), Buffer, 10 );
  f0:	c7 01       	movw	r24, r14
  f2:	b8 01       	movw	r22, r16
  f4:	4a e0       	ldi	r20, 0x0A	; 10
  f6:	50 e0       	ldi	r21, 0x00	; 0
  f8:	a4 d3       	rcall	.+1864   	; 0x842 <itoa>
            lcd_string( Buffer );
  fa:	c8 01       	movw	r24, r16
  fc:	2a d3       	rcall	.+1620   	; 0x752 <lcd_string>

            zeig=U_BAT*25;
  fe:	82 e0       	ldi	r24, 0x02	; 2
 100:	9d d1       	rcall	.+826    	; 0x43c <ADC_Read>
 102:	7c 01       	movw	r14, r24
 104:	ee 0c       	add	r14, r14
 106:	ff 1c       	adc	r15, r15
 108:	e8 0e       	add	r14, r24
 10a:	f9 1e       	adc	r15, r25
 10c:	ee 0c       	add	r14, r14
 10e:	ff 1c       	adc	r15, r15
 110:	ee 0c       	add	r14, r14
 112:	ff 1c       	adc	r15, r15
 114:	ee 0c       	add	r14, r14
 116:	ff 1c       	adc	r15, r15
 118:	e8 0e       	add	r14, r24
 11a:	f9 1e       	adc	r15, r25

            lcd_setcursor(9,2);
 11c:	89 e0       	ldi	r24, 0x09	; 9
 11e:	62 e0       	ldi	r22, 0x02	; 2
 120:	e7 d2       	rcall	.+1486   	; 0x6f0 <lcd_setcursor>
            itoa( (zeig/1000), Buffer, 10 );
 122:	c7 01       	movw	r24, r14
 124:	b5 01       	movw	r22, r10
 126:	3c d3       	rcall	.+1656   	; 0x7a0 <__udivmodhi4>
 128:	7c 01       	movw	r14, r24
 12a:	cb 01       	movw	r24, r22
 12c:	b8 01       	movw	r22, r16
 12e:	4a e0       	ldi	r20, 0x0A	; 10
 130:	50 e0       	ldi	r21, 0x00	; 0
 132:	87 d3       	rcall	.+1806   	; 0x842 <itoa>
            lcd_string( Buffer );
 134:	c8 01       	movw	r24, r16
 136:	0d d3       	rcall	.+1562   	; 0x752 <lcd_string>
            lcd_data(0x2c);
 138:	8c e2       	ldi	r24, 0x2C	; 44
 13a:	60 d2       	rcall	.+1216   	; 0x5fc <lcd_data>
            itoa( (zeig-((zeig/1000)*1000)), Buffer, 10 );
 13c:	c7 01       	movw	r24, r14
 13e:	b8 01       	movw	r22, r16
 140:	4a e0       	ldi	r20, 0x0A	; 10
 142:	50 e0       	ldi	r21, 0x00	; 0
 144:	7e d3       	rcall	.+1788   	; 0x842 <itoa>
            lcd_string( Buffer );
 146:	c8 01       	movw	r24, r16
 148:	04 d3       	rcall	.+1544   	; 0x752 <lcd_string>
            status=0;
        }

    }
    return status;
}
 14a:	8d 2d       	mov	r24, r13
 14c:	64 96       	adiw	r28, 0x14	; 20
 14e:	0f b6       	in	r0, 0x3f	; 63
 150:	f8 94       	cli
 152:	de bf       	out	0x3e, r29	; 62
 154:	0f be       	out	0x3f, r0	; 63
 156:	cd bf       	out	0x3d, r28	; 61
 158:	cf 91       	pop	r28
 15a:	df 91       	pop	r29
 15c:	1f 91       	pop	r17
 15e:	0f 91       	pop	r16
 160:	ff 90       	pop	r15
 162:	ef 90       	pop	r14
 164:	df 90       	pop	r13
 166:	bf 90       	pop	r11
 168:	af 90       	pop	r10
 16a:	08 95       	ret
        }
    }

    else //Displaybeleuchtung aus
    {
        if (status){
 16c:	88 23       	and	r24, r24
 16e:	69 f3       	breq	.-38     	; 0x14a <Display.clone.0+0xec>
            lcd_command(LCD_SET_DISPLAY | LCD_DISPLAY_OFF);
 170:	88 e0       	ldi	r24, 0x08	; 8
 172:	63 d2       	rcall	.+1222   	; 0x63a <lcd_command>
            status=0;
 174:	dd 24       	eor	r13, r13
 176:	e9 cf       	rjmp	.-46     	; 0x14a <Display.clone.0+0xec>
    char Buffer[20];

    if (PINB & (1<<PB2)) //Displaybeleuchtung an
    {
        if (!status){
            lcd_command(LCD_SET_DISPLAY | LCD_DISPLAY_ON);
 178:	8c e0       	ldi	r24, 0x0C	; 12
 17a:	5f d2       	rcall	.+1214   	; 0x63a <lcd_command>
            status=1;
 17c:	dd 24       	eor	r13, r13
 17e:	d3 94       	inc	r13
 180:	85 cf       	rjmp	.-246    	; 0x8c <Display.clone.0+0x2e>

00000182 <main>:

volatile uint8_t GIAF=0;	//GIAF= "generelles Interrupt aktivierungsFlag"
volatile uint16_t tCounter=0;

int main(void)
{
 182:	ff 92       	push	r15
 184:	0f 93       	push	r16
 186:	1f 93       	push	r17
 188:	cf 93       	push	r28
 18a:	df 93       	push	r29

    uint8_t disp_mode=0,disp_stat=1;

    //	Start Initialisierung

    DDRB = DDRB & ~(1<<PB2) | (1<<PB3) & ~(1<<PB1) | (1<<PB0) | (1<<PB4) | (1<<PB5);
 18c:	87 b3       	in	r24, 0x17	; 23
 18e:	82 7c       	andi	r24, 0xC2	; 194
 190:	89 63       	ori	r24, 0x39	; 57
 192:	87 bb       	out	0x17, r24	; 23
    DDRC |= (1<<PC5) | (1<<PC4);
 194:	84 b3       	in	r24, 0x14	; 20
 196:	80 63       	ori	r24, 0x30	; 48
 198:	84 bb       	out	0x14, r24	; 20
    DDRD = DDRD & ~(1<<PD6) & ~(1<<PD7) ;
 19a:	81 b3       	in	r24, 0x11	; 17
 19c:	8f 73       	andi	r24, 0x3F	; 63
 19e:	81 bb       	out	0x11, r24	; 17
    ADC_Init();
 1a0:	3e d1       	rcall	.+636    	; 0x41e <ADC_Init>
    lcd_init();
 1a2:	84 d1       	rcall	.+776    	; 0x4ac <lcd_init>
	#else
		//round up by default
		__ticks_dc = (uint32_t)(ceil(fabs(__tmp)));
	#endif

	__builtin_avr_delay_cycles(__ticks_dc);
 1a4:	8f eb       	ldi	r24, 0xBF	; 191
 1a6:	94 ed       	ldi	r25, 0xD4	; 212
 1a8:	a1 e0       	ldi	r26, 0x01	; 1
 1aa:	81 50       	subi	r24, 0x01	; 1
 1ac:	90 40       	sbci	r25, 0x00	; 0
 1ae:	a0 40       	sbci	r26, 0x00	; 0
 1b0:	e1 f7       	brne	.-8      	; 0x1aa <main+0x28>
 1b2:	00 c0       	rjmp	.+0      	; 0x1b4 <main+0x32>
 1b4:	00 00       	nop
    _delay_ms(50);

    lcd_command(0b00001111);	//cursor setzen
 1b6:	8f e0       	ldi	r24, 0x0F	; 15
 1b8:	40 d2       	rcall	.+1152   	; 0x63a <lcd_command>
    lcd_string("Test");
 1ba:	8c e6       	ldi	r24, 0x6C	; 108
 1bc:	90 e0       	ldi	r25, 0x00	; 0
 1be:	c9 d2       	rcall	.+1426   	; 0x752 <lcd_string>
    // PWM Werte eingestellt.
#endif


    // Timer 0 konfigurieren
    TCCR0 = (1<<CS00)|(1<<CS02); // Prescaler 8
 1c0:	85 e0       	ldi	r24, 0x05	; 5
 1c2:	83 bf       	out	0x33, r24	; 51

    // Overflow Interrupt erlauben
    TIMSK |= (1<<TOIE0);
 1c4:	89 b7       	in	r24, 0x39	; 57
 1c6:	81 60       	ori	r24, 0x01	; 1
 1c8:	89 bf       	out	0x39, r24	; 57

#ifdef Ladeschaltung
    PWM_PWR = 200;
#endif

    sei();
 1ca:	78 94       	sei



    //uint16_t i=0;
    uint8_t Te=0,Tz=0,led_stat=0;
    PORTB&= ~(1<<PB0);
 1cc:	c0 98       	cbi	0x18, 0	; 24




    //uint16_t i=0;
    uint8_t Te=0,Tz=0,led_stat=0;
 1ce:	10 e0       	ldi	r17, 0x00	; 0
 1d0:	00 e0       	ldi	r16, 0x00	; 0
volatile uint16_t tCounter=0;

int main(void)
{

    uint8_t disp_mode=0,disp_stat=1;
 1d2:	ff 24       	eor	r15, r15
 1d4:	f3 94       	inc	r15


    while(1)
    {

        if(GIAF & INT_TIMER){
 1d6:	80 91 7c 00 	lds	r24, 0x007C
 1da:	81 ff       	sbrs	r24, 1
 1dc:	fc cf       	rjmp	.-8      	; 0x1d6 <main+0x54>


void TE_Schutz(void){
    uint16_t u_bat;

    u_bat=U_BAT;
 1de:	82 e0       	ldi	r24, 0x02	; 2
 1e0:	2d d1       	rcall	.+602    	; 0x43c <ADC_Read>
    if (u_bat <= BAT_LOW) {
 1e2:	8b 3f       	cpi	r24, 0xFB	; 251
 1e4:	91 05       	cpc	r25, r1
 1e6:	08 f4       	brcc	.+2      	; 0x1ea <main+0x68>
 1e8:	4d c0       	rjmp	.+154    	; 0x284 <main+0x102>
        PORTC &= ~(1<<PC5); //PC5=Tiefentladeschutz ausschalten
    }
    else if (u_bat>=(BAT_LOW+3)) {
 1ea:	8d 3f       	cpi	r24, 0xFD	; 253
 1ec:	91 05       	cpc	r25, r1
 1ee:	08 f0       	brcs	.+2      	; 0x1f2 <main+0x70>
        PORTD |= (1<<PC5); //PC5=Tiefentladeschutz einschalten
 1f0:	95 9a       	sbi	0x12, 5	; 18
        if(GIAF & INT_TIMER){

            TE_Schutz();


            if (TAG) //Tag
 1f2:	80 e0       	ldi	r24, 0x00	; 0
 1f4:	23 d1       	rcall	.+582    	; 0x43c <ADC_Read>
 1f6:	ec 01       	movw	r28, r24
 1f8:	82 e0       	ldi	r24, 0x02	; 2
 1fa:	20 d1       	rcall	.+576    	; 0x43c <ADC_Read>
 1fc:	8c 17       	cp	r24, r28
 1fe:	9d 07       	cpc	r25, r29
 200:	b4 f4       	brge	.+44     	; 0x22e <main+0xac>
            {
                if (led_stat!=0)	//Lampen aus
 202:	11 23       	and	r17, r17
 204:	31 f0       	breq	.+12     	; 0x212 <main+0x90>
                {
                    led_stat=led_stat & ~LAMPE1 & ~LAMPE2;
 206:	1f 7c       	andi	r17, 0xCF	; 207
                    PORTB=PORTB & (led_stat | ~0x03);//~LAMPE1 & ~LAMPE2;
 208:	98 b3       	in	r25, 0x18	; 24
 20a:	81 2f       	mov	r24, r17
 20c:	8c 6f       	ori	r24, 0xFC	; 252
 20e:	89 23       	and	r24, r25
 210:	88 bb       	out	0x18, r24	; 24

#ifdef Ladeschaltung
                if (!UL_Schutz()) //Shutdown ausmachen
                {
#endif
                    if(PINB&(1<<PB0)==0)
 212:	86 b3       	in	r24, 0x16	; 22
                        PORTB|= (1<<PB0);


                    if (GIAF & INT_DISPLAY)
 214:	80 91 7c 00 	lds	r24, 0x007C
 218:	80 ff       	sbrs	r24, 0
 21a:	dd cf       	rjmp	.-70     	; 0x1d6 <main+0x54>
                    {
                        disp_stat=Display(disp_mode,disp_stat);
 21c:	8f 2d       	mov	r24, r15
 21e:	1f df       	rcall	.-450    	; 0x5e <Display.clone.0>
 220:	f8 2e       	mov	r15, r24
                        GIAF&=~(1<<0);
 222:	80 91 7c 00 	lds	r24, 0x007C
 226:	8e 7f       	andi	r24, 0xFE	; 254
 228:	80 93 7c 00 	sts	0x007C, r24
 22c:	d4 cf       	rjmp	.-88     	; 0x1d6 <main+0x54>

                else PORTB &= ~(1<<PB0);
#endif
            }

            else if (NACHT) //Nacht
 22e:	82 e0       	ldi	r24, 0x02	; 2
 230:	05 d1       	rcall	.+522    	; 0x43c <ADC_Read>
 232:	ec 01       	movw	r28, r24
 234:	80 e0       	ldi	r24, 0x00	; 0
 236:	02 d1       	rcall	.+516    	; 0x43c <ADC_Read>
 238:	8c 17       	cp	r24, r28
 23a:	9d 07       	cpc	r25, r29
 23c:	64 f6       	brge	.-104    	; 0x1d6 <main+0x54>
                if ((PINB&~(1<<PB0))!=0)
                {
                    PORTB&= ~(1<<PB0);
                }
#endif
                if ((PINC&(1<<PC4))!=0) //LÔøΩfter aus
 23e:	9c 99       	sbic	0x13, 4	; 19
                {
                    PORTC&= ~(1<<PC4);
 240:	ac 98       	cbi	0x15, 4	; 21
                }

                switch (Te) {
 242:	00 23       	and	r16, r16
 244:	21 f4       	brne	.+8      	; 0x24e <main+0xcc>

                case 0:
                    if (PIND6!=0)    //Schalter gedr√ºckt, sch√∂ner w√§re √ºber interrupt, aber PD2 und PD3 hat das Display
                    {
                        Te=1;
                        if ((led_stat&(1<<0))==0)
 246:	10 ff       	sbrs	r17, 0
 248:	22 c0       	rjmp	.+68     	; 0x28e <main+0x10c>
                            led_stat|=(1<<0);
                            PORTB|=(1<<PB4);
                        }
                        else if ((led_stat&(1<<0))!=0)
                        {
                            led_stat&=~(1<<0);
 24a:	1e 7f       	andi	r17, 0xFE	; 254
                            PORTB&=~(1<<PB4);
 24c:	c4 98       	cbi	0x18, 4	; 24

                case 0:
                    if (PIND7!=0)    //Schalter gedr√ºckt, sch√∂ner w√§re √ºber interrupt, aber PD2 und PD3 hat das Display
                    {                //Aktion sofort nach dem Dr√ºcken
                        Te=1;
                        if ((led_stat&(1<<1))==0)
 24e:	11 ff       	sbrs	r17, 1
 250:	1b c0       	rjmp	.+54     	; 0x288 <main+0x106>
                            led_stat|=(1<<1);
                            PORTB|=(1<<PB5);
                        }
                        else if ((led_stat&(1<<1))!=0)
                        {
                            led_stat&=~(1<<1);
 252:	1d 7f       	andi	r17, 0xFD	; 253
                            PORTB&=~(1<<PB5);
 254:	c5 98       	cbi	0x18, 5	; 24
                    break;
                default:
                    break;
                }

                if ((tCounter==45)&&(GIAF&(1<<0)))
 256:	20 91 7d 00 	lds	r18, 0x007D
 25a:	30 91 7e 00 	lds	r19, 0x007E
 25e:	2d 32       	cpi	r18, 0x2D	; 45
 260:	31 05       	cpc	r19, r1
 262:	11 f0       	breq	.+4      	; 0x268 <main+0xe6>
 264:	01 e0       	ldi	r16, 0x01	; 1
 266:	b7 cf       	rjmp	.-146    	; 0x1d6 <main+0x54>
 268:	80 91 7c 00 	lds	r24, 0x007C
 26c:	80 ff       	sbrs	r24, 0
 26e:	fa cf       	rjmp	.-12     	; 0x264 <main+0xe2>
                {	disp_stat=Display(disp_mode,disp_stat);
 270:	8f 2d       	mov	r24, r15
 272:	f5 de       	rcall	.-534    	; 0x5e <Display.clone.0>
 274:	f8 2e       	mov	r15, r24
                GIAF&=~(1<<0);
 276:	80 91 7c 00 	lds	r24, 0x007C
 27a:	8e 7f       	andi	r24, 0xFE	; 254
 27c:	80 93 7c 00 	sts	0x007C, r24
 280:	01 e0       	ldi	r16, 0x01	; 1
 282:	a9 cf       	rjmp	.-174    	; 0x1d6 <main+0x54>
void TE_Schutz(void){
    uint16_t u_bat;

    u_bat=U_BAT;
    if (u_bat <= BAT_LOW) {
        PORTC &= ~(1<<PC5); //PC5=Tiefentladeschutz ausschalten
 284:	ad 98       	cbi	0x15, 5	; 21
 286:	b5 cf       	rjmp	.-150    	; 0x1f2 <main+0x70>
                    if (PIND7!=0)    //Schalter gedr√ºckt, sch√∂ner w√§re √ºber interrupt, aber PD2 und PD3 hat das Display
                    {                //Aktion sofort nach dem Dr√ºcken
                        Te=1;
                        if ((led_stat&(1<<1))==0)
                        {
                            led_stat|=(1<<1);
 288:	12 60       	ori	r17, 0x02	; 2
                            PORTB|=(1<<PB5);
 28a:	c5 9a       	sbi	0x18, 5	; 24
 28c:	e4 cf       	rjmp	.-56     	; 0x256 <main+0xd4>
                    if (PIND6!=0)    //Schalter gedr√ºckt, sch√∂ner w√§re √ºber interrupt, aber PD2 und PD3 hat das Display
                    {
                        Te=1;
                        if ((led_stat&(1<<0))==0)
                        {
                            led_stat|=(1<<0);
 28e:	11 60       	ori	r17, 0x01	; 1
                            PORTB|=(1<<PB4);
 290:	c4 9a       	sbi	0x18, 4	; 24
 292:	dd cf       	rjmp	.-70     	; 0x24e <main+0xcc>

00000294 <Display>:
        }


    }
}
uint8_t Display(uint8_t modus, uint8_t status){
 294:	af 92       	push	r10
 296:	bf 92       	push	r11
 298:	df 92       	push	r13
 29a:	ef 92       	push	r14
 29c:	ff 92       	push	r15
 29e:	0f 93       	push	r16
 2a0:	1f 93       	push	r17
 2a2:	df 93       	push	r29
 2a4:	cf 93       	push	r28
 2a6:	cd b7       	in	r28, 0x3d	; 61
 2a8:	de b7       	in	r29, 0x3e	; 62
 2aa:	64 97       	sbiw	r28, 0x14	; 20
 2ac:	0f b6       	in	r0, 0x3f	; 63
 2ae:	f8 94       	cli
 2b0:	de bf       	out	0x3e, r29	; 62
 2b2:	0f be       	out	0x3f, r0	; 63
 2b4:	cd bf       	out	0x3d, r28	; 61
 2b6:	08 2f       	mov	r16, r24
 2b8:	d6 2e       	mov	r13, r22

    uint16_t zeig;
    char Buffer[20];

    if (PINB & (1<<PB2)) //Displaybeleuchtung an
 2ba:	b2 9b       	sbis	0x16, 2	; 22
 2bc:	76 c0       	rjmp	.+236    	; 0x3aa <Display+0x116>
    {
        if (!status){
 2be:	66 23       	and	r22, r22
 2c0:	09 f4       	brne	.+2      	; 0x2c4 <Display+0x30>
 2c2:	88 c0       	rjmp	.+272    	; 0x3d4 <Display+0x140>
            lcd_command(LCD_SET_DISPLAY | LCD_DISPLAY_ON);
            status=1;
        }

        switch (modus){
 2c4:	00 23       	and	r16, r16
 2c6:	09 f0       	breq	.+2      	; 0x2ca <Display+0x36>
 2c8:	76 c0       	rjmp	.+236    	; 0x3b6 <Display+0x122>
        case 0:
            lcd_setcursor(0,1);
 2ca:	80 e0       	ldi	r24, 0x00	; 0
 2cc:	61 e0       	ldi	r22, 0x01	; 1
 2ce:	10 d2       	rcall	.+1056   	; 0x6f0 <lcd_setcursor>
            lcd_string( "U_Sol" );
 2d0:	80 e6       	ldi	r24, 0x60	; 96
 2d2:	90 e0       	ldi	r25, 0x00	; 0
 2d4:	3e d2       	rcall	.+1148   	; 0x752 <lcd_string>

            lcd_setcursor(9,1);
 2d6:	89 e0       	ldi	r24, 0x09	; 9
 2d8:	61 e0       	ldi	r22, 0x01	; 1
 2da:	0a d2       	rcall	.+1044   	; 0x6f0 <lcd_setcursor>
            lcd_string( "U_Bat" );
 2dc:	86 e6       	ldi	r24, 0x66	; 102
 2de:	90 e0       	ldi	r25, 0x00	; 0
 2e0:	38 d2       	rcall	.+1136   	; 0x752 <lcd_string>

            zeig=U_SOL*25;
 2e2:	80 e0       	ldi	r24, 0x00	; 0
 2e4:	ab d0       	rcall	.+342    	; 0x43c <ADC_Read>
 2e6:	8c 01       	movw	r16, r24
 2e8:	00 0f       	add	r16, r16
 2ea:	11 1f       	adc	r17, r17
 2ec:	08 0f       	add	r16, r24
 2ee:	19 1f       	adc	r17, r25
 2f0:	00 0f       	add	r16, r16
 2f2:	11 1f       	adc	r17, r17
 2f4:	00 0f       	add	r16, r16
 2f6:	11 1f       	adc	r17, r17
 2f8:	00 0f       	add	r16, r16
 2fa:	11 1f       	adc	r17, r17
 2fc:	08 0f       	add	r16, r24
 2fe:	19 1f       	adc	r17, r25

            lcd_setcursor(0,2);
 300:	80 e0       	ldi	r24, 0x00	; 0
 302:	62 e0       	ldi	r22, 0x02	; 2
 304:	f5 d1       	rcall	.+1002   	; 0x6f0 <lcd_setcursor>
            itoa( (zeig/1000), Buffer, 10 );
 306:	f8 ee       	ldi	r31, 0xE8	; 232
 308:	af 2e       	mov	r10, r31
 30a:	f3 e0       	ldi	r31, 0x03	; 3
 30c:	bf 2e       	mov	r11, r31
 30e:	c8 01       	movw	r24, r16
 310:	b5 01       	movw	r22, r10
 312:	46 d2       	rcall	.+1164   	; 0x7a0 <__udivmodhi4>
 314:	7c 01       	movw	r14, r24
 316:	cb 01       	movw	r24, r22
 318:	8e 01       	movw	r16, r28
 31a:	0f 5f       	subi	r16, 0xFF	; 255
 31c:	1f 4f       	sbci	r17, 0xFF	; 255
 31e:	b8 01       	movw	r22, r16
 320:	4a e0       	ldi	r20, 0x0A	; 10
 322:	50 e0       	ldi	r21, 0x00	; 0
 324:	8e d2       	rcall	.+1308   	; 0x842 <itoa>
            lcd_string( Buffer );
 326:	c8 01       	movw	r24, r16
 328:	14 d2       	rcall	.+1064   	; 0x752 <lcd_string>
            lcd_data(0x2c);
 32a:	8c e2       	ldi	r24, 0x2C	; 44
 32c:	67 d1       	rcall	.+718    	; 0x5fc <lcd_data>
            itoa( (zeig-((zeig/1000)*1000)), Buffer, 10 );
 32e:	c7 01       	movw	r24, r14
 330:	b8 01       	movw	r22, r16
 332:	4a e0       	ldi	r20, 0x0A	; 10
 334:	50 e0       	ldi	r21, 0x00	; 0
 336:	85 d2       	rcall	.+1290   	; 0x842 <itoa>
            lcd_string( Buffer );
 338:	c8 01       	movw	r24, r16
 33a:	0b d2       	rcall	.+1046   	; 0x752 <lcd_string>

            zeig=U_BAT*25;
 33c:	82 e0       	ldi	r24, 0x02	; 2
 33e:	7e d0       	rcall	.+252    	; 0x43c <ADC_Read>
 340:	7c 01       	movw	r14, r24
 342:	ee 0c       	add	r14, r14
 344:	ff 1c       	adc	r15, r15
 346:	e8 0e       	add	r14, r24
 348:	f9 1e       	adc	r15, r25
 34a:	ee 0c       	add	r14, r14
 34c:	ff 1c       	adc	r15, r15
 34e:	ee 0c       	add	r14, r14
 350:	ff 1c       	adc	r15, r15
 352:	ee 0c       	add	r14, r14
 354:	ff 1c       	adc	r15, r15
 356:	e8 0e       	add	r14, r24
 358:	f9 1e       	adc	r15, r25

            lcd_setcursor(9,2);
 35a:	89 e0       	ldi	r24, 0x09	; 9
 35c:	62 e0       	ldi	r22, 0x02	; 2
 35e:	c8 d1       	rcall	.+912    	; 0x6f0 <lcd_setcursor>
            itoa( (zeig/1000), Buffer, 10 );
 360:	c7 01       	movw	r24, r14
 362:	b5 01       	movw	r22, r10
 364:	1d d2       	rcall	.+1082   	; 0x7a0 <__udivmodhi4>
 366:	7c 01       	movw	r14, r24
 368:	cb 01       	movw	r24, r22
 36a:	b8 01       	movw	r22, r16
 36c:	4a e0       	ldi	r20, 0x0A	; 10
 36e:	50 e0       	ldi	r21, 0x00	; 0
 370:	68 d2       	rcall	.+1232   	; 0x842 <itoa>
            lcd_string( Buffer );
 372:	c8 01       	movw	r24, r16
 374:	ee d1       	rcall	.+988    	; 0x752 <lcd_string>
            lcd_data(0x2c);
 376:	8c e2       	ldi	r24, 0x2C	; 44
 378:	41 d1       	rcall	.+642    	; 0x5fc <lcd_data>
            itoa( (zeig-((zeig/1000)*1000)), Buffer, 10 );
 37a:	c7 01       	movw	r24, r14
 37c:	b8 01       	movw	r22, r16
 37e:	4a e0       	ldi	r20, 0x0A	; 10
 380:	50 e0       	ldi	r21, 0x00	; 0
 382:	5f d2       	rcall	.+1214   	; 0x842 <itoa>
            lcd_string( Buffer );
 384:	c8 01       	movw	r24, r16
 386:	e5 d1       	rcall	.+970    	; 0x752 <lcd_string>
            status=0;
        }

    }
    return status;
}
 388:	8d 2d       	mov	r24, r13
 38a:	64 96       	adiw	r28, 0x14	; 20
 38c:	0f b6       	in	r0, 0x3f	; 63
 38e:	f8 94       	cli
 390:	de bf       	out	0x3e, r29	; 62
 392:	0f be       	out	0x3f, r0	; 63
 394:	cd bf       	out	0x3d, r28	; 61
 396:	cf 91       	pop	r28
 398:	df 91       	pop	r29
 39a:	1f 91       	pop	r17
 39c:	0f 91       	pop	r16
 39e:	ff 90       	pop	r15
 3a0:	ef 90       	pop	r14
 3a2:	df 90       	pop	r13
 3a4:	bf 90       	pop	r11
 3a6:	af 90       	pop	r10
 3a8:	08 95       	ret
        }
    }

    else //Displaybeleuchtung aus
    {
        if (status){
 3aa:	66 23       	and	r22, r22
 3ac:	69 f3       	breq	.-38     	; 0x388 <Display+0xf4>
            lcd_command(LCD_SET_DISPLAY | LCD_DISPLAY_OFF);
 3ae:	88 e0       	ldi	r24, 0x08	; 8
 3b0:	44 d1       	rcall	.+648    	; 0x63a <lcd_command>
            status=0;
 3b2:	dd 24       	eor	r13, r13
 3b4:	e9 cf       	rjmp	.-46     	; 0x388 <Display+0xf4>
        if (!status){
            lcd_command(LCD_SET_DISPLAY | LCD_DISPLAY_ON);
            status=1;
        }

        switch (modus){
 3b6:	01 30       	cpi	r16, 0x01	; 1
 3b8:	39 f7       	brne	.-50     	; 0x388 <Display+0xf4>
            lcd_data(0x2c);
            itoa( (zeig-((zeig/1000)*1000)), Buffer, 10 );
            lcd_string( Buffer );
            break;
        case 1:
            lcd_setcursor(0,1);
 3ba:	80 e0       	ldi	r24, 0x00	; 0
 3bc:	61 e0       	ldi	r22, 0x01	; 1
 3be:	98 d1       	rcall	.+816    	; 0x6f0 <lcd_setcursor>
            lcd_string ("Lampe");
 3c0:	81 e7       	ldi	r24, 0x71	; 113
 3c2:	90 e0       	ldi	r25, 0x00	; 0
 3c4:	c6 d1       	rcall	.+908    	; 0x752 <lcd_string>
            lcd_setcursor(9,1);
 3c6:	89 e0       	ldi	r24, 0x09	; 9
 3c8:	61 e0       	ldi	r22, 0x01	; 1
 3ca:	92 d1       	rcall	.+804    	; 0x6f0 <lcd_setcursor>
            lcd_string ("Zeit");
 3cc:	87 e7       	ldi	r24, 0x77	; 119
 3ce:	90 e0       	ldi	r25, 0x00	; 0
 3d0:	c0 d1       	rcall	.+896    	; 0x752 <lcd_string>

            break;
 3d2:	da cf       	rjmp	.-76     	; 0x388 <Display+0xf4>
    char Buffer[20];

    if (PINB & (1<<PB2)) //Displaybeleuchtung an
    {
        if (!status){
            lcd_command(LCD_SET_DISPLAY | LCD_DISPLAY_ON);
 3d4:	8c e0       	ldi	r24, 0x0C	; 12
 3d6:	31 d1       	rcall	.+610    	; 0x63a <lcd_command>
            status=1;
 3d8:	dd 24       	eor	r13, r13
 3da:	d3 94       	inc	r13
        }

        switch (modus){
 3dc:	00 23       	and	r16, r16
 3de:	09 f4       	brne	.+2      	; 0x3e2 <Display+0x14e>
 3e0:	74 cf       	rjmp	.-280    	; 0x2ca <Display+0x36>
 3e2:	e9 cf       	rjmp	.-46     	; 0x3b6 <Display+0x122>

000003e4 <__vector_9>:
wird aufgerufen, wenn TCNT0 von
255 auf 0 wechselt (256 Schritte),
d.h. ca. alle (21.85) ms
 */
ISR(TIMER0_OVF_vect)
{
 3e4:	1f 92       	push	r1
 3e6:	0f 92       	push	r0
 3e8:	0f b6       	in	r0, 0x3f	; 63
 3ea:	0f 92       	push	r0
 3ec:	11 24       	eor	r1, r1
 3ee:	8f 93       	push	r24
    }
    tCounterb++;
#ifdef Ladeschaltung
    tCounter=tCounterb;
#endif
    GIAF|=INT_TIMER;
 3f0:	80 91 7c 00 	lds	r24, 0x007C
 3f4:	82 60       	ori	r24, 0x02	; 2
 3f6:	80 93 7c 00 	sts	0x007C, r24
}
 3fa:	8f 91       	pop	r24
 3fc:	0f 90       	pop	r0
 3fe:	0f be       	out	0x3f, r0	; 63
 400:	0f 90       	pop	r0
 402:	1f 90       	pop	r1
 404:	18 95       	reti

00000406 <TE_Schutz>:


void TE_Schutz(void){
    uint16_t u_bat;

    u_bat=U_BAT;
 406:	82 e0       	ldi	r24, 0x02	; 2
 408:	19 d0       	rcall	.+50     	; 0x43c <ADC_Read>
    if (u_bat <= BAT_LOW) {
 40a:	8b 3f       	cpi	r24, 0xFB	; 251
 40c:	91 05       	cpc	r25, r1
 40e:	28 f0       	brcs	.+10     	; 0x41a <TE_Schutz+0x14>
        PORTC &= ~(1<<PC5); //PC5=Tiefentladeschutz ausschalten
    }
    else if (u_bat>=(BAT_LOW+3)) {
 410:	8d 3f       	cpi	r24, 0xFD	; 253
 412:	91 05       	cpc	r25, r1
 414:	08 f0       	brcs	.+2      	; 0x418 <TE_Schutz+0x12>
        PORTD |= (1<<PC5); //PC5=Tiefentladeschutz einschalten
 416:	95 9a       	sbi	0x12, 5	; 18
 418:	08 95       	ret
void TE_Schutz(void){
    uint16_t u_bat;

    u_bat=U_BAT;
    if (u_bat <= BAT_LOW) {
        PORTC &= ~(1<<PC5); //PC5=Tiefentladeschutz ausschalten
 41a:	ad 98       	cbi	0x15, 5	; 21
 41c:	08 95       	ret

0000041e <ADC_Init>:
void ADC_Init(void) {
 
  int result;
 
//  ADMUX = (0<<REFS1) | (1<<REFS0);      // AVcc als Referenz benutzen
  ADMUX = (1<<REFS1) | (1<<REFS0);      // interne Referenzspannung nutzen
 41e:	80 ec       	ldi	r24, 0xC0	; 192
 420:	87 b9       	out	0x07, r24	; 7
  ADCSRA =(1<<ADPS2) | (1<<ADPS1) | (0<<ADPS0);     // Frequenzvorteiler: 64
 422:	86 e0       	ldi	r24, 0x06	; 6
 424:	86 b9       	out	0x06, r24	; 6
  ADCSRA |= (1<<ADEN);                  // ADC aktivieren
 426:	37 9a       	sbi	0x06, 7	; 6
 
  /* nach Aktivieren des ADC wird ein "Dummy-Readout" empfohlen, man liest
     also einen Wert und verwirft diesen, um den ADC "warmlaufen zu lassen" */
 
  ADCSRA |= (1<<ADSC);                  // eine ADC-Wandlung 
 428:	36 9a       	sbi	0x06, 6	; 6
  while (ADCSRA & (1<<ADSC) ) {}        // auf Abschluss der Konvertierung warten
 42a:	36 99       	sbic	0x06, 6	; 6
 42c:	fe cf       	rjmp	.-4      	; 0x42a <ADC_Init+0xc>
  /* ADCW muss einmal gelesen werden, sonst wird Ergebnis der n‰chsten
     Wandlung nicht ¸bernommen. */
  result = ADCW;
 42e:	84 b1       	in	r24, 0x04	; 4
 430:	95 b1       	in	r25, 0x05	; 5
}
 432:	08 95       	ret

00000434 <ADC_enable>:
 
 void ADC_enable(void) {
 ADCSRA |= (1<<ADEN);                  // ADC aktivieren
 434:	37 9a       	sbi	0x06, 7	; 6
 }
 436:	08 95       	ret

00000438 <ADC_disable>:
 
 void ADC_disable(void) {
 ADCSRA &=~(1<<ADEN);                  // ADC deaktivieren
 438:	37 98       	cbi	0x06, 7	; 6
 }
 43a:	08 95       	ret

0000043c <ADC_Read>:
    
/* ADC Einzelmessung */
int ADC_Read( char channel )
{
  // Kanal waehlen, ohne andere Bits zu beeinfluﬂen
  ADMUX = (ADMUX & ~(0x1F)) | (channel & 0x1F);
 43c:	97 b1       	in	r25, 0x07	; 7
 43e:	8f 71       	andi	r24, 0x1F	; 31
 440:	90 7e       	andi	r25, 0xE0	; 224
 442:	89 2b       	or	r24, r25
 444:	87 b9       	out	0x07, r24	; 7
  ADCSRA |= (1<<ADSC);            // eine Wandlung "single conversion"
 446:	36 9a       	sbi	0x06, 6	; 6
  while (ADCSRA & (1<<ADSC) ) {}  // auf Abschluss der Konvertierung warten
 448:	36 99       	sbic	0x06, 6	; 6
 44a:	fe cf       	rjmp	.-4      	; 0x448 <ADC_Read+0xc>
  return ADCW;                    // ADC auslesen und zur¸ckgeben
 44c:	24 b1       	in	r18, 0x04	; 4
 44e:	35 b1       	in	r19, 0x05	; 5
}
 450:	c9 01       	movw	r24, r18
 452:	08 95       	ret

00000454 <ADC_Read_Avg>:
 
//ADC Mehrfachmessung mit Mittelwertbbildung 
int ADC_Read_Avg( char channel, char average )
{
 454:	0f 93       	push	r16
 456:	1f 93       	push	r17
 458:	56 2f       	mov	r21, r22
  long result = 0;
 
  for (char i = 0; i < average; ++i )
 45a:	66 23       	and	r22, r22
 45c:	19 f1       	breq	.+70     	; 0x4a4 <__stack+0x45>
 45e:	e8 2f       	mov	r30, r24
 460:	ef 71       	andi	r30, 0x1F	; 31
 462:	40 e0       	ldi	r20, 0x00	; 0
}
 
//ADC Mehrfachmessung mit Mittelwertbbildung 
int ADC_Read_Avg( char channel, char average )
{
  long result = 0;
 464:	60 e0       	ldi	r22, 0x00	; 0
 466:	70 e0       	ldi	r23, 0x00	; 0
 468:	cb 01       	movw	r24, r22
    
/* ADC Einzelmessung */
int ADC_Read( char channel )
{
  // Kanal waehlen, ohne andere Bits zu beeinfluﬂen
  ADMUX = (ADMUX & ~(0x1F)) | (channel & 0x1F);
 46a:	37 b1       	in	r19, 0x07	; 7
 46c:	30 7e       	andi	r19, 0xE0	; 224
 46e:	3e 2b       	or	r19, r30
 470:	37 b9       	out	0x07, r19	; 7
  ADCSRA |= (1<<ADSC);            // eine Wandlung "single conversion"
 472:	36 9a       	sbi	0x06, 6	; 6
  while (ADCSRA & (1<<ADSC) ) {}  // auf Abschluss der Konvertierung warten
 474:	36 99       	sbic	0x06, 6	; 6
 476:	fe cf       	rjmp	.-4      	; 0x474 <__stack+0x15>
  return ADCW;                    // ADC auslesen und zur¸ckgeben
 478:	04 b1       	in	r16, 0x04	; 4
 47a:	15 b1       	in	r17, 0x05	; 5
int ADC_Read_Avg( char channel, char average )
{
  long result = 0;
 
  for (char i = 0; i < average; ++i )
    result += ADC_Read( channel );
 47c:	22 27       	eor	r18, r18
 47e:	17 fd       	sbrc	r17, 7
 480:	20 95       	com	r18
 482:	32 2f       	mov	r19, r18
 484:	60 0f       	add	r22, r16
 486:	71 1f       	adc	r23, r17
 488:	82 1f       	adc	r24, r18
 48a:	93 1f       	adc	r25, r19
//ADC Mehrfachmessung mit Mittelwertbbildung 
int ADC_Read_Avg( char channel, char average )
{
  long result = 0;
 
  for (char i = 0; i < average; ++i )
 48c:	4f 5f       	subi	r20, 0xFF	; 255
 48e:	45 17       	cp	r20, r21
 490:	60 f3       	brcs	.-40     	; 0x46a <__stack+0xb>
    result += ADC_Read( channel );
 
  return (int)( result / average );
 492:	25 2f       	mov	r18, r21
 494:	30 e0       	ldi	r19, 0x00	; 0
 496:	40 e0       	ldi	r20, 0x00	; 0
 498:	50 e0       	ldi	r21, 0x00	; 0
 49a:	96 d1       	rcall	.+812    	; 0x7c8 <__divmodsi4>
}
 49c:	c9 01       	movw	r24, r18
 49e:	1f 91       	pop	r17
 4a0:	0f 91       	pop	r16
 4a2:	08 95       	ret
}
 
//ADC Mehrfachmessung mit Mittelwertbbildung 
int ADC_Read_Avg( char channel, char average )
{
  long result = 0;
 4a4:	60 e0       	ldi	r22, 0x00	; 0
 4a6:	70 e0       	ldi	r23, 0x00	; 0
 4a8:	cb 01       	movw	r24, r22
 4aa:	f3 cf       	rjmp	.-26     	; 0x492 <__stack+0x33>

000004ac <lcd_init>:
{
    // verwendete Pins auf Ausgang schalten
    uint8_t pins = (0x0F << LCD_DB) |           // 4 Datenleitungen
                   (1<<LCD_RS) |                // R/S Leitung
                   (1<<LCD_EN);                 // Enable Leitung
    LCD_DDR |= pins;
 4ac:	81 b3       	in	r24, 0x11	; 17
 4ae:	8f 63       	ori	r24, 0x3F	; 63
 4b0:	81 bb       	out	0x11, r24	; 17
 
    // initial alle Ausg‰nge auf Null
    LCD_PORT &= ~pins;
 4b2:	82 b3       	in	r24, 0x12	; 18
 4b4:	80 7c       	andi	r24, 0xC0	; 192
 4b6:	82 bb       	out	0x12, r24	; 18
 4b8:	87 ec       	ldi	r24, 0xC7	; 199
 4ba:	9f ea       	ldi	r25, 0xAF	; 175
 4bc:	01 97       	sbiw	r24, 0x01	; 1
 4be:	f1 f7       	brne	.-4      	; 0x4bc <lcd_init+0x10>
 4c0:	00 c0       	rjmp	.+0      	; 0x4c2 <lcd_init+0x16>
 4c2:	00 00       	nop
// Sendet eine 4-bit Ausgabeoperation an das LCD
static void lcd_out( uint8_t data )
{
    data &= 0xF0;                       // obere 4 Bit maskieren
 
    LCD_PORT &= ~(0xF0>>(4-LCD_DB));    // Maske lˆschen
 4c4:	82 b3       	in	r24, 0x12	; 18
 4c6:	80 7f       	andi	r24, 0xF0	; 240
 4c8:	82 bb       	out	0x12, r24	; 18
    LCD_PORT |= (data>>(4-LCD_DB));     // Bits setzen
 4ca:	82 b3       	in	r24, 0x12	; 18
 4cc:	83 60       	ori	r24, 0x03	; 3
 4ce:	82 bb       	out	0x12, r24	; 18
 
////////////////////////////////////////////////////////////////////////////////
// Erzeugt einen Enable-Puls
static void lcd_enable( void )
{
    LCD_PORT |= (1<<LCD_EN);     // Enable auf 1 setzen
 4d0:	95 9a       	sbi	0x12, 5	; 18
	#else
		//round up by default
		__ticks_dc = (uint32_t)(ceil(fabs(__tmp)));
	#endif

	__builtin_avr_delay_cycles(__ticks_dc);
 4d2:	94 e0       	ldi	r25, 0x04	; 4
 4d4:	9a 95       	dec	r25
 4d6:	f1 f7       	brne	.-4      	; 0x4d4 <lcd_init+0x28>
    _delay_us( LCD_ENABLE_US );  // kurze Pause
    LCD_PORT &= ~(1<<LCD_EN);    // Enable auf 0 setzen
 4d8:	95 98       	cbi	0x12, 5	; 18
	#else
		//round up by default
		__ticks_dc = (uint32_t)(ceil(fabs(__tmp)));
	#endif

	__builtin_avr_delay_cycles(__ticks_dc);
 4da:	87 e9       	ldi	r24, 0x97	; 151
 4dc:	9a e3       	ldi	r25, 0x3A	; 58
 4de:	01 97       	sbiw	r24, 0x01	; 1
 4e0:	f1 f7       	brne	.-4      	; 0x4de <lcd_init+0x32>
 4e2:	00 c0       	rjmp	.+0      	; 0x4e4 <lcd_init+0x38>
 4e4:	00 00       	nop
 
////////////////////////////////////////////////////////////////////////////////
// Erzeugt einen Enable-Puls
static void lcd_enable( void )
{
    LCD_PORT |= (1<<LCD_EN);     // Enable auf 1 setzen
 4e6:	95 9a       	sbi	0x12, 5	; 18
	#else
		//round up by default
		__ticks_dc = (uint32_t)(ceil(fabs(__tmp)));
	#endif

	__builtin_avr_delay_cycles(__ticks_dc);
 4e8:	94 e0       	ldi	r25, 0x04	; 4
 4ea:	9a 95       	dec	r25
 4ec:	f1 f7       	brne	.-4      	; 0x4ea <lcd_init+0x3e>
    _delay_us( LCD_ENABLE_US );  // kurze Pause
    LCD_PORT &= ~(1<<LCD_EN);    // Enable auf 0 setzen
 4ee:	95 98       	cbi	0x12, 5	; 18
	#else
		//round up by default
		__ticks_dc = (uint32_t)(ceil(fabs(__tmp)));
	#endif

	__builtin_avr_delay_cycles(__ticks_dc);
 4f0:	87 eb       	ldi	r24, 0xB7	; 183
 4f2:	9b e0       	ldi	r25, 0x0B	; 11
 4f4:	01 97       	sbiw	r24, 0x01	; 1
 4f6:	f1 f7       	brne	.-4      	; 0x4f4 <lcd_init+0x48>
 4f8:	00 c0       	rjmp	.+0      	; 0x4fa <lcd_init+0x4e>
 4fa:	00 00       	nop
 
////////////////////////////////////////////////////////////////////////////////
// Erzeugt einen Enable-Puls
static void lcd_enable( void )
{
    LCD_PORT |= (1<<LCD_EN);     // Enable auf 1 setzen
 4fc:	95 9a       	sbi	0x12, 5	; 18
	#else
		//round up by default
		__ticks_dc = (uint32_t)(ceil(fabs(__tmp)));
	#endif

	__builtin_avr_delay_cycles(__ticks_dc);
 4fe:	94 e0       	ldi	r25, 0x04	; 4
 500:	9a 95       	dec	r25
 502:	f1 f7       	brne	.-4      	; 0x500 <lcd_init+0x54>
    _delay_us( LCD_ENABLE_US );  // kurze Pause
    LCD_PORT &= ~(1<<LCD_EN);    // Enable auf 0 setzen
 504:	95 98       	cbi	0x12, 5	; 18
	#else
		//round up by default
		__ticks_dc = (uint32_t)(ceil(fabs(__tmp)));
	#endif

	__builtin_avr_delay_cycles(__ticks_dc);
 506:	87 eb       	ldi	r24, 0xB7	; 183
 508:	9b e0       	ldi	r25, 0x0B	; 11
 50a:	01 97       	sbiw	r24, 0x01	; 1
 50c:	f1 f7       	brne	.-4      	; 0x50a <lcd_init+0x5e>
 50e:	00 c0       	rjmp	.+0      	; 0x510 <lcd_init+0x64>
 510:	00 00       	nop
// Sendet eine 4-bit Ausgabeoperation an das LCD
static void lcd_out( uint8_t data )
{
    data &= 0xF0;                       // obere 4 Bit maskieren
 
    LCD_PORT &= ~(0xF0>>(4-LCD_DB));    // Maske lˆschen
 512:	82 b3       	in	r24, 0x12	; 18
 514:	80 7f       	andi	r24, 0xF0	; 240
 516:	82 bb       	out	0x12, r24	; 18
    LCD_PORT |= (data>>(4-LCD_DB));     // Bits setzen
 518:	91 9a       	sbi	0x12, 1	; 18
 
////////////////////////////////////////////////////////////////////////////////
// Erzeugt einen Enable-Puls
static void lcd_enable( void )
{
    LCD_PORT |= (1<<LCD_EN);     // Enable auf 1 setzen
 51a:	95 9a       	sbi	0x12, 5	; 18
	#else
		//round up by default
		__ticks_dc = (uint32_t)(ceil(fabs(__tmp)));
	#endif

	__builtin_avr_delay_cycles(__ticks_dc);
 51c:	94 e0       	ldi	r25, 0x04	; 4
 51e:	9a 95       	dec	r25
 520:	f1 f7       	brne	.-4      	; 0x51e <lcd_init+0x72>
    _delay_us( LCD_ENABLE_US );  // kurze Pause
    LCD_PORT &= ~(1<<LCD_EN);    // Enable auf 0 setzen
 522:	95 98       	cbi	0x12, 5	; 18
	#else
		//round up by default
		__ticks_dc = (uint32_t)(ceil(fabs(__tmp)));
	#endif

	__builtin_avr_delay_cycles(__ticks_dc);
 524:	87 e9       	ldi	r24, 0x97	; 151
 526:	9a e3       	ldi	r25, 0x3A	; 58
 528:	01 97       	sbiw	r24, 0x01	; 1
 52a:	f1 f7       	brne	.-4      	; 0x528 <lcd_init+0x7c>
 52c:	00 c0       	rjmp	.+0      	; 0x52e <lcd_init+0x82>
 52e:	00 00       	nop
 
////////////////////////////////////////////////////////////////////////////////
// Sendet einen Befehl an das LCD
void lcd_command( uint8_t data )
{
    LCD_PORT &= ~(1<<LCD_RS);    // RS auf 0 setzen
 530:	94 98       	cbi	0x12, 4	; 18
// Sendet eine 4-bit Ausgabeoperation an das LCD
static void lcd_out( uint8_t data )
{
    data &= 0xF0;                       // obere 4 Bit maskieren
 
    LCD_PORT &= ~(0xF0>>(4-LCD_DB));    // Maske lˆschen
 532:	82 b3       	in	r24, 0x12	; 18
 534:	80 7f       	andi	r24, 0xF0	; 240
 536:	82 bb       	out	0x12, r24	; 18
    LCD_PORT |= (data>>(4-LCD_DB));     // Bits setzen
 538:	91 9a       	sbi	0x12, 1	; 18
 
////////////////////////////////////////////////////////////////////////////////
// Erzeugt einen Enable-Puls
static void lcd_enable( void )
{
    LCD_PORT |= (1<<LCD_EN);     // Enable auf 1 setzen
 53a:	95 9a       	sbi	0x12, 5	; 18
	#else
		//round up by default
		__ticks_dc = (uint32_t)(ceil(fabs(__tmp)));
	#endif

	__builtin_avr_delay_cycles(__ticks_dc);
 53c:	94 e0       	ldi	r25, 0x04	; 4
 53e:	9a 95       	dec	r25
 540:	f1 f7       	brne	.-4      	; 0x53e <lcd_init+0x92>
    _delay_us( LCD_ENABLE_US );  // kurze Pause
    LCD_PORT &= ~(1<<LCD_EN);    // Enable auf 0 setzen
 542:	95 98       	cbi	0x12, 5	; 18
// Sendet eine 4-bit Ausgabeoperation an das LCD
static void lcd_out( uint8_t data )
{
    data &= 0xF0;                       // obere 4 Bit maskieren
 
    LCD_PORT &= ~(0xF0>>(4-LCD_DB));    // Maske lˆschen
 544:	82 b3       	in	r24, 0x12	; 18
 546:	80 7f       	andi	r24, 0xF0	; 240
 548:	82 bb       	out	0x12, r24	; 18
    LCD_PORT |= (data>>(4-LCD_DB));     // Bits setzen
 54a:	93 9a       	sbi	0x12, 3	; 18
 
////////////////////////////////////////////////////////////////////////////////
// Erzeugt einen Enable-Puls
static void lcd_enable( void )
{
    LCD_PORT |= (1<<LCD_EN);     // Enable auf 1 setzen
 54c:	95 9a       	sbi	0x12, 5	; 18
 54e:	84 e0       	ldi	r24, 0x04	; 4
 550:	8a 95       	dec	r24
 552:	f1 f7       	brne	.-4      	; 0x550 <lcd_init+0xa4>
    _delay_us( LCD_ENABLE_US );  // kurze Pause
    LCD_PORT &= ~(1<<LCD_EN);    // Enable auf 0 setzen
 554:	95 98       	cbi	0x12, 5	; 18
 556:	98 ea       	ldi	r25, 0xA8	; 168
 558:	9a 95       	dec	r25
 55a:	f1 f7       	brne	.-4      	; 0x558 <lcd_init+0xac>
 
////////////////////////////////////////////////////////////////////////////////
// Sendet einen Befehl an das LCD
void lcd_command( uint8_t data )
{
    LCD_PORT &= ~(1<<LCD_RS);    // RS auf 0 setzen
 55c:	94 98       	cbi	0x12, 4	; 18
// Sendet eine 4-bit Ausgabeoperation an das LCD
static void lcd_out( uint8_t data )
{
    data &= 0xF0;                       // obere 4 Bit maskieren
 
    LCD_PORT &= ~(0xF0>>(4-LCD_DB));    // Maske lˆschen
 55e:	82 b3       	in	r24, 0x12	; 18
 560:	80 7f       	andi	r24, 0xF0	; 240
 562:	82 bb       	out	0x12, r24	; 18
    LCD_PORT |= (data>>(4-LCD_DB));     // Bits setzen
 564:	82 b3       	in	r24, 0x12	; 18
 566:	82 bb       	out	0x12, r24	; 18
 
////////////////////////////////////////////////////////////////////////////////
// Erzeugt einen Enable-Puls
static void lcd_enable( void )
{
    LCD_PORT |= (1<<LCD_EN);     // Enable auf 1 setzen
 568:	95 9a       	sbi	0x12, 5	; 18
 56a:	84 e0       	ldi	r24, 0x04	; 4
 56c:	8a 95       	dec	r24
 56e:	f1 f7       	brne	.-4      	; 0x56c <lcd_init+0xc0>
    _delay_us( LCD_ENABLE_US );  // kurze Pause
    LCD_PORT &= ~(1<<LCD_EN);    // Enable auf 0 setzen
 570:	95 98       	cbi	0x12, 5	; 18
// Sendet eine 4-bit Ausgabeoperation an das LCD
static void lcd_out( uint8_t data )
{
    data &= 0xF0;                       // obere 4 Bit maskieren
 
    LCD_PORT &= ~(0xF0>>(4-LCD_DB));    // Maske lˆschen
 572:	82 b3       	in	r24, 0x12	; 18
 574:	80 7f       	andi	r24, 0xF0	; 240
 576:	82 bb       	out	0x12, r24	; 18
    LCD_PORT |= (data>>(4-LCD_DB));     // Bits setzen
 578:	82 b3       	in	r24, 0x12	; 18
 57a:	8c 60       	ori	r24, 0x0C	; 12
 57c:	82 bb       	out	0x12, r24	; 18
 
////////////////////////////////////////////////////////////////////////////////
// Erzeugt einen Enable-Puls
static void lcd_enable( void )
{
    LCD_PORT |= (1<<LCD_EN);     // Enable auf 1 setzen
 57e:	95 9a       	sbi	0x12, 5	; 18
 580:	94 e0       	ldi	r25, 0x04	; 4
 582:	9a 95       	dec	r25
 584:	f1 f7       	brne	.-4      	; 0x582 <lcd_init+0xd6>
    _delay_us( LCD_ENABLE_US );  // kurze Pause
    LCD_PORT &= ~(1<<LCD_EN);    // Enable auf 0 setzen
 586:	95 98       	cbi	0x12, 5	; 18
 588:	88 ea       	ldi	r24, 0xA8	; 168
 58a:	8a 95       	dec	r24
 58c:	f1 f7       	brne	.-4      	; 0x58a <lcd_init+0xde>
 
////////////////////////////////////////////////////////////////////////////////
// Sendet einen Befehl an das LCD
void lcd_command( uint8_t data )
{
    LCD_PORT &= ~(1<<LCD_RS);    // RS auf 0 setzen
 58e:	94 98       	cbi	0x12, 4	; 18
// Sendet eine 4-bit Ausgabeoperation an das LCD
static void lcd_out( uint8_t data )
{
    data &= 0xF0;                       // obere 4 Bit maskieren
 
    LCD_PORT &= ~(0xF0>>(4-LCD_DB));    // Maske lˆschen
 590:	82 b3       	in	r24, 0x12	; 18
 592:	80 7f       	andi	r24, 0xF0	; 240
 594:	82 bb       	out	0x12, r24	; 18
    LCD_PORT |= (data>>(4-LCD_DB));     // Bits setzen
 596:	82 b3       	in	r24, 0x12	; 18
 598:	82 bb       	out	0x12, r24	; 18
 
////////////////////////////////////////////////////////////////////////////////
// Erzeugt einen Enable-Puls
static void lcd_enable( void )
{
    LCD_PORT |= (1<<LCD_EN);     // Enable auf 1 setzen
 59a:	95 9a       	sbi	0x12, 5	; 18
 59c:	94 e0       	ldi	r25, 0x04	; 4
 59e:	9a 95       	dec	r25
 5a0:	f1 f7       	brne	.-4      	; 0x59e <lcd_init+0xf2>
    _delay_us( LCD_ENABLE_US );  // kurze Pause
    LCD_PORT &= ~(1<<LCD_EN);    // Enable auf 0 setzen
 5a2:	95 98       	cbi	0x12, 5	; 18
// Sendet eine 4-bit Ausgabeoperation an das LCD
static void lcd_out( uint8_t data )
{
    data &= 0xF0;                       // obere 4 Bit maskieren
 
    LCD_PORT &= ~(0xF0>>(4-LCD_DB));    // Maske lˆschen
 5a4:	82 b3       	in	r24, 0x12	; 18
 5a6:	80 7f       	andi	r24, 0xF0	; 240
 5a8:	82 bb       	out	0x12, r24	; 18
    LCD_PORT |= (data>>(4-LCD_DB));     // Bits setzen
 5aa:	82 b3       	in	r24, 0x12	; 18
 5ac:	86 60       	ori	r24, 0x06	; 6
 5ae:	82 bb       	out	0x12, r24	; 18
 
////////////////////////////////////////////////////////////////////////////////
// Erzeugt einen Enable-Puls
static void lcd_enable( void )
{
    LCD_PORT |= (1<<LCD_EN);     // Enable auf 1 setzen
 5b0:	95 9a       	sbi	0x12, 5	; 18
 5b2:	84 e0       	ldi	r24, 0x04	; 4
 5b4:	8a 95       	dec	r24
 5b6:	f1 f7       	brne	.-4      	; 0x5b4 <lcd_init+0x108>
    _delay_us( LCD_ENABLE_US );  // kurze Pause
    LCD_PORT &= ~(1<<LCD_EN);    // Enable auf 0 setzen
 5b8:	95 98       	cbi	0x12, 5	; 18
 5ba:	98 ea       	ldi	r25, 0xA8	; 168
 5bc:	9a 95       	dec	r25
 5be:	f1 f7       	brne	.-4      	; 0x5bc <lcd_init+0x110>
 
////////////////////////////////////////////////////////////////////////////////
// Sendet einen Befehl an das LCD
void lcd_command( uint8_t data )
{
    LCD_PORT &= ~(1<<LCD_RS);    // RS auf 0 setzen
 5c0:	94 98       	cbi	0x12, 4	; 18
// Sendet eine 4-bit Ausgabeoperation an das LCD
static void lcd_out( uint8_t data )
{
    data &= 0xF0;                       // obere 4 Bit maskieren
 
    LCD_PORT &= ~(0xF0>>(4-LCD_DB));    // Maske lˆschen
 5c2:	82 b3       	in	r24, 0x12	; 18
 5c4:	80 7f       	andi	r24, 0xF0	; 240
 5c6:	82 bb       	out	0x12, r24	; 18
    LCD_PORT |= (data>>(4-LCD_DB));     // Bits setzen
 5c8:	82 b3       	in	r24, 0x12	; 18
 5ca:	82 bb       	out	0x12, r24	; 18
 
////////////////////////////////////////////////////////////////////////////////
// Erzeugt einen Enable-Puls
static void lcd_enable( void )
{
    LCD_PORT |= (1<<LCD_EN);     // Enable auf 1 setzen
 5cc:	95 9a       	sbi	0x12, 5	; 18
 5ce:	84 e0       	ldi	r24, 0x04	; 4
 5d0:	8a 95       	dec	r24
 5d2:	f1 f7       	brne	.-4      	; 0x5d0 <lcd_init+0x124>
    _delay_us( LCD_ENABLE_US );  // kurze Pause
    LCD_PORT &= ~(1<<LCD_EN);    // Enable auf 0 setzen
 5d4:	95 98       	cbi	0x12, 5	; 18
// Sendet eine 4-bit Ausgabeoperation an das LCD
static void lcd_out( uint8_t data )
{
    data &= 0xF0;                       // obere 4 Bit maskieren
 
    LCD_PORT &= ~(0xF0>>(4-LCD_DB));    // Maske lˆschen
 5d6:	82 b3       	in	r24, 0x12	; 18
 5d8:	80 7f       	andi	r24, 0xF0	; 240
 5da:	82 bb       	out	0x12, r24	; 18
    LCD_PORT |= (data>>(4-LCD_DB));     // Bits setzen
 5dc:	90 9a       	sbi	0x12, 0	; 18
 
////////////////////////////////////////////////////////////////////////////////
// Erzeugt einen Enable-Puls
static void lcd_enable( void )
{
    LCD_PORT |= (1<<LCD_EN);     // Enable auf 1 setzen
 5de:	95 9a       	sbi	0x12, 5	; 18
 5e0:	94 e0       	ldi	r25, 0x04	; 4
 5e2:	9a 95       	dec	r25
 5e4:	f1 f7       	brne	.-4      	; 0x5e2 <lcd_init+0x136>
    _delay_us( LCD_ENABLE_US );  // kurze Pause
    LCD_PORT &= ~(1<<LCD_EN);    // Enable auf 0 setzen
 5e6:	95 98       	cbi	0x12, 5	; 18
 5e8:	88 ea       	ldi	r24, 0xA8	; 168
 5ea:	8a 95       	dec	r24
 5ec:	f1 f7       	brne	.-4      	; 0x5ea <lcd_init+0x13e>
	#else
		//round up by default
		__ticks_dc = (uint32_t)(ceil(fabs(__tmp)));
	#endif

	__builtin_avr_delay_cycles(__ticks_dc);
 5ee:	8f e6       	ldi	r24, 0x6F	; 111
 5f0:	97 e1       	ldi	r25, 0x17	; 23
 5f2:	01 97       	sbiw	r24, 0x01	; 1
 5f4:	f1 f7       	brne	.-4      	; 0x5f2 <lcd_init+0x146>
 5f6:	00 c0       	rjmp	.+0      	; 0x5f8 <lcd_init+0x14c>
 5f8:	00 00       	nop
    lcd_command( LCD_SET_ENTRY |
                 LCD_ENTRY_INCREASE |
                 LCD_ENTRY_NOSHIFT );
 
    lcd_clear();
}
 5fa:	08 95       	ret

000005fc <lcd_data>:
  
////////////////////////////////////////////////////////////////////////////////
// Sendet ein Datenbyte an das LCD
void lcd_data( uint8_t data )
{
    LCD_PORT |= (1<<LCD_RS);    // RS auf 1 setzen
 5fc:	94 9a       	sbi	0x12, 4	; 18
// Sendet eine 4-bit Ausgabeoperation an das LCD
static void lcd_out( uint8_t data )
{
    data &= 0xF0;                       // obere 4 Bit maskieren
 
    LCD_PORT &= ~(0xF0>>(4-LCD_DB));    // Maske lˆschen
 5fe:	92 b3       	in	r25, 0x12	; 18
 600:	90 7f       	andi	r25, 0xF0	; 240
 602:	92 bb       	out	0x12, r25	; 18
    LCD_PORT |= (data>>(4-LCD_DB));     // Bits setzen
 604:	22 b3       	in	r18, 0x12	; 18
 606:	98 2f       	mov	r25, r24
 608:	92 95       	swap	r25
 60a:	9f 70       	andi	r25, 0x0F	; 15
 60c:	92 2b       	or	r25, r18
 60e:	92 bb       	out	0x12, r25	; 18
 
////////////////////////////////////////////////////////////////////////////////
// Erzeugt einen Enable-Puls
static void lcd_enable( void )
{
    LCD_PORT |= (1<<LCD_EN);     // Enable auf 1 setzen
 610:	95 9a       	sbi	0x12, 5	; 18
	#else
		//round up by default
		__ticks_dc = (uint32_t)(ceil(fabs(__tmp)));
	#endif

	__builtin_avr_delay_cycles(__ticks_dc);
 612:	94 e0       	ldi	r25, 0x04	; 4
 614:	9a 95       	dec	r25
 616:	f1 f7       	brne	.-4      	; 0x614 <lcd_data+0x18>
    _delay_us( LCD_ENABLE_US );  // kurze Pause
    LCD_PORT &= ~(1<<LCD_EN);    // Enable auf 0 setzen
 618:	95 98       	cbi	0x12, 5	; 18
// Sendet eine 4-bit Ausgabeoperation an das LCD
static void lcd_out( uint8_t data )
{
    data &= 0xF0;                       // obere 4 Bit maskieren
 
    LCD_PORT &= ~(0xF0>>(4-LCD_DB));    // Maske lˆschen
 61a:	92 b3       	in	r25, 0x12	; 18
 61c:	90 7f       	andi	r25, 0xF0	; 240
 61e:	92 bb       	out	0x12, r25	; 18
    LCD_PORT |= (data>>(4-LCD_DB));     // Bits setzen
 620:	92 b3       	in	r25, 0x12	; 18
 622:	8f 70       	andi	r24, 0x0F	; 15
 624:	89 2b       	or	r24, r25
 626:	82 bb       	out	0x12, r24	; 18
 
////////////////////////////////////////////////////////////////////////////////
// Erzeugt einen Enable-Puls
static void lcd_enable( void )
{
    LCD_PORT |= (1<<LCD_EN);     // Enable auf 1 setzen
 628:	95 9a       	sbi	0x12, 5	; 18
 62a:	84 e0       	ldi	r24, 0x04	; 4
 62c:	8a 95       	dec	r24
 62e:	f1 f7       	brne	.-4      	; 0x62c <lcd_data+0x30>
    _delay_us( LCD_ENABLE_US );  // kurze Pause
    LCD_PORT &= ~(1<<LCD_EN);    // Enable auf 0 setzen
 630:	95 98       	cbi	0x12, 5	; 18
 632:	98 eb       	ldi	r25, 0xB8	; 184
 634:	9a 95       	dec	r25
 636:	f1 f7       	brne	.-4      	; 0x634 <lcd_data+0x38>
 
    lcd_out( data );            // zuerst die oberen, 
    lcd_out( data<<4 );         // dann die unteren 4 Bit senden
 
    _delay_us( LCD_WRITEDATA_US );
}
 638:	08 95       	ret

0000063a <lcd_command>:
 
////////////////////////////////////////////////////////////////////////////////
// Sendet einen Befehl an das LCD
void lcd_command( uint8_t data )
{
    LCD_PORT &= ~(1<<LCD_RS);    // RS auf 0 setzen
 63a:	94 98       	cbi	0x12, 4	; 18
// Sendet eine 4-bit Ausgabeoperation an das LCD
static void lcd_out( uint8_t data )
{
    data &= 0xF0;                       // obere 4 Bit maskieren
 
    LCD_PORT &= ~(0xF0>>(4-LCD_DB));    // Maske lˆschen
 63c:	92 b3       	in	r25, 0x12	; 18
 63e:	90 7f       	andi	r25, 0xF0	; 240
 640:	92 bb       	out	0x12, r25	; 18
    LCD_PORT |= (data>>(4-LCD_DB));     // Bits setzen
 642:	22 b3       	in	r18, 0x12	; 18
 644:	98 2f       	mov	r25, r24
 646:	92 95       	swap	r25
 648:	9f 70       	andi	r25, 0x0F	; 15
 64a:	92 2b       	or	r25, r18
 64c:	92 bb       	out	0x12, r25	; 18
 
////////////////////////////////////////////////////////////////////////////////
// Erzeugt einen Enable-Puls
static void lcd_enable( void )
{
    LCD_PORT |= (1<<LCD_EN);     // Enable auf 1 setzen
 64e:	95 9a       	sbi	0x12, 5	; 18
 650:	94 e0       	ldi	r25, 0x04	; 4
 652:	9a 95       	dec	r25
 654:	f1 f7       	brne	.-4      	; 0x652 <lcd_command+0x18>
    _delay_us( LCD_ENABLE_US );  // kurze Pause
    LCD_PORT &= ~(1<<LCD_EN);    // Enable auf 0 setzen
 656:	95 98       	cbi	0x12, 5	; 18
// Sendet eine 4-bit Ausgabeoperation an das LCD
static void lcd_out( uint8_t data )
{
    data &= 0xF0;                       // obere 4 Bit maskieren
 
    LCD_PORT &= ~(0xF0>>(4-LCD_DB));    // Maske lˆschen
 658:	92 b3       	in	r25, 0x12	; 18
 65a:	90 7f       	andi	r25, 0xF0	; 240
 65c:	92 bb       	out	0x12, r25	; 18
    LCD_PORT |= (data>>(4-LCD_DB));     // Bits setzen
 65e:	92 b3       	in	r25, 0x12	; 18
 660:	8f 70       	andi	r24, 0x0F	; 15
 662:	89 2b       	or	r24, r25
 664:	82 bb       	out	0x12, r24	; 18
 
////////////////////////////////////////////////////////////////////////////////
// Erzeugt einen Enable-Puls
static void lcd_enable( void )
{
    LCD_PORT |= (1<<LCD_EN);     // Enable auf 1 setzen
 666:	95 9a       	sbi	0x12, 5	; 18
 668:	84 e0       	ldi	r24, 0x04	; 4
 66a:	8a 95       	dec	r24
 66c:	f1 f7       	brne	.-4      	; 0x66a <lcd_command+0x30>
    _delay_us( LCD_ENABLE_US );  // kurze Pause
    LCD_PORT &= ~(1<<LCD_EN);    // Enable auf 0 setzen
 66e:	95 98       	cbi	0x12, 5	; 18
 670:	98 ea       	ldi	r25, 0xA8	; 168
 672:	9a 95       	dec	r25
 674:	f1 f7       	brne	.-4      	; 0x672 <lcd_command+0x38>
 
    lcd_out( data );             // zuerst die oberen, 
    lcd_out( data<<4 );           // dann die unteren 4 Bit senden
 
    _delay_us( LCD_COMMAND_US );
}
 676:	08 95       	ret

00000678 <lcd_clear>:
 
////////////////////////////////////////////////////////////////////////////////
// Sendet einen Befehl an das LCD
void lcd_command( uint8_t data )
{
    LCD_PORT &= ~(1<<LCD_RS);    // RS auf 0 setzen
 678:	94 98       	cbi	0x12, 4	; 18
// Sendet eine 4-bit Ausgabeoperation an das LCD
static void lcd_out( uint8_t data )
{
    data &= 0xF0;                       // obere 4 Bit maskieren
 
    LCD_PORT &= ~(0xF0>>(4-LCD_DB));    // Maske lˆschen
 67a:	82 b3       	in	r24, 0x12	; 18
 67c:	80 7f       	andi	r24, 0xF0	; 240
 67e:	82 bb       	out	0x12, r24	; 18
    LCD_PORT |= (data>>(4-LCD_DB));     // Bits setzen
 680:	82 b3       	in	r24, 0x12	; 18
 682:	82 bb       	out	0x12, r24	; 18
 
////////////////////////////////////////////////////////////////////////////////
// Erzeugt einen Enable-Puls
static void lcd_enable( void )
{
    LCD_PORT |= (1<<LCD_EN);     // Enable auf 1 setzen
 684:	95 9a       	sbi	0x12, 5	; 18
 686:	84 e0       	ldi	r24, 0x04	; 4
 688:	8a 95       	dec	r24
 68a:	f1 f7       	brne	.-4      	; 0x688 <lcd_clear+0x10>
    _delay_us( LCD_ENABLE_US );  // kurze Pause
    LCD_PORT &= ~(1<<LCD_EN);    // Enable auf 0 setzen
 68c:	95 98       	cbi	0x12, 5	; 18
// Sendet eine 4-bit Ausgabeoperation an das LCD
static void lcd_out( uint8_t data )
{
    data &= 0xF0;                       // obere 4 Bit maskieren
 
    LCD_PORT &= ~(0xF0>>(4-LCD_DB));    // Maske lˆschen
 68e:	82 b3       	in	r24, 0x12	; 18
 690:	80 7f       	andi	r24, 0xF0	; 240
 692:	82 bb       	out	0x12, r24	; 18
    LCD_PORT |= (data>>(4-LCD_DB));     // Bits setzen
 694:	90 9a       	sbi	0x12, 0	; 18
 
////////////////////////////////////////////////////////////////////////////////
// Erzeugt einen Enable-Puls
static void lcd_enable( void )
{
    LCD_PORT |= (1<<LCD_EN);     // Enable auf 1 setzen
 696:	95 9a       	sbi	0x12, 5	; 18
 698:	94 e0       	ldi	r25, 0x04	; 4
 69a:	9a 95       	dec	r25
 69c:	f1 f7       	brne	.-4      	; 0x69a <lcd_clear+0x22>
    _delay_us( LCD_ENABLE_US );  // kurze Pause
    LCD_PORT &= ~(1<<LCD_EN);    // Enable auf 0 setzen
 69e:	95 98       	cbi	0x12, 5	; 18
 6a0:	88 ea       	ldi	r24, 0xA8	; 168
 6a2:	8a 95       	dec	r24
 6a4:	f1 f7       	brne	.-4      	; 0x6a2 <lcd_clear+0x2a>
	#else
		//round up by default
		__ticks_dc = (uint32_t)(ceil(fabs(__tmp)));
	#endif

	__builtin_avr_delay_cycles(__ticks_dc);
 6a6:	8f e6       	ldi	r24, 0x6F	; 111
 6a8:	97 e1       	ldi	r25, 0x17	; 23
 6aa:	01 97       	sbiw	r24, 0x01	; 1
 6ac:	f1 f7       	brne	.-4      	; 0x6aa <lcd_clear+0x32>
 6ae:	00 c0       	rjmp	.+0      	; 0x6b0 <lcd_clear+0x38>
 6b0:	00 00       	nop
// Sendet den Befehl zur Lˆschung des Displays
void lcd_clear( void )
{
    lcd_command( LCD_CLEAR_DISPLAY );
    _delay_ms( LCD_CLEAR_DISPLAY_MS );
}
 6b2:	08 95       	ret

000006b4 <lcd_home>:
 
////////////////////////////////////////////////////////////////////////////////
// Sendet einen Befehl an das LCD
void lcd_command( uint8_t data )
{
    LCD_PORT &= ~(1<<LCD_RS);    // RS auf 0 setzen
 6b4:	94 98       	cbi	0x12, 4	; 18
// Sendet eine 4-bit Ausgabeoperation an das LCD
static void lcd_out( uint8_t data )
{
    data &= 0xF0;                       // obere 4 Bit maskieren
 
    LCD_PORT &= ~(0xF0>>(4-LCD_DB));    // Maske lˆschen
 6b6:	82 b3       	in	r24, 0x12	; 18
 6b8:	80 7f       	andi	r24, 0xF0	; 240
 6ba:	82 bb       	out	0x12, r24	; 18
    LCD_PORT |= (data>>(4-LCD_DB));     // Bits setzen
 6bc:	82 b3       	in	r24, 0x12	; 18
 6be:	82 bb       	out	0x12, r24	; 18
 
////////////////////////////////////////////////////////////////////////////////
// Erzeugt einen Enable-Puls
static void lcd_enable( void )
{
    LCD_PORT |= (1<<LCD_EN);     // Enable auf 1 setzen
 6c0:	95 9a       	sbi	0x12, 5	; 18
	#else
		//round up by default
		__ticks_dc = (uint32_t)(ceil(fabs(__tmp)));
	#endif

	__builtin_avr_delay_cycles(__ticks_dc);
 6c2:	84 e0       	ldi	r24, 0x04	; 4
 6c4:	8a 95       	dec	r24
 6c6:	f1 f7       	brne	.-4      	; 0x6c4 <lcd_home+0x10>
    _delay_us( LCD_ENABLE_US );  // kurze Pause
    LCD_PORT &= ~(1<<LCD_EN);    // Enable auf 0 setzen
 6c8:	95 98       	cbi	0x12, 5	; 18
// Sendet eine 4-bit Ausgabeoperation an das LCD
static void lcd_out( uint8_t data )
{
    data &= 0xF0;                       // obere 4 Bit maskieren
 
    LCD_PORT &= ~(0xF0>>(4-LCD_DB));    // Maske lˆschen
 6ca:	82 b3       	in	r24, 0x12	; 18
 6cc:	80 7f       	andi	r24, 0xF0	; 240
 6ce:	82 bb       	out	0x12, r24	; 18
    LCD_PORT |= (data>>(4-LCD_DB));     // Bits setzen
 6d0:	91 9a       	sbi	0x12, 1	; 18
 
////////////////////////////////////////////////////////////////////////////////
// Erzeugt einen Enable-Puls
static void lcd_enable( void )
{
    LCD_PORT |= (1<<LCD_EN);     // Enable auf 1 setzen
 6d2:	95 9a       	sbi	0x12, 5	; 18
 6d4:	94 e0       	ldi	r25, 0x04	; 4
 6d6:	9a 95       	dec	r25
 6d8:	f1 f7       	brne	.-4      	; 0x6d6 <lcd_home+0x22>
    _delay_us( LCD_ENABLE_US );  // kurze Pause
    LCD_PORT &= ~(1<<LCD_EN);    // Enable auf 0 setzen
 6da:	95 98       	cbi	0x12, 5	; 18
 6dc:	88 ea       	ldi	r24, 0xA8	; 168
 6de:	8a 95       	dec	r24
 6e0:	f1 f7       	brne	.-4      	; 0x6de <lcd_home+0x2a>
	#else
		//round up by default
		__ticks_dc = (uint32_t)(ceil(fabs(__tmp)));
	#endif

	__builtin_avr_delay_cycles(__ticks_dc);
 6e2:	8f e6       	ldi	r24, 0x6F	; 111
 6e4:	97 e1       	ldi	r25, 0x17	; 23
 6e6:	01 97       	sbiw	r24, 0x01	; 1
 6e8:	f1 f7       	brne	.-4      	; 0x6e6 <lcd_home+0x32>
 6ea:	00 c0       	rjmp	.+0      	; 0x6ec <lcd_home+0x38>
 6ec:	00 00       	nop
// Sendet den Befehl: Cursor Home
void lcd_home( void )
{
    lcd_command( LCD_CURSOR_HOME );
    _delay_ms( LCD_CURSOR_HOME_MS );
}
 6ee:	08 95       	ret

000006f0 <lcd_setcursor>:
 
void lcd_setcursor( uint8_t x, uint8_t y )
{
    uint8_t data;
 
    switch (y)
 6f0:	62 30       	cpi	r22, 0x02	; 2
 6f2:	59 f1       	breq	.+86     	; 0x74a <lcd_setcursor+0x5a>
 6f4:	63 30       	cpi	r22, 0x03	; 3
 6f6:	28 f0       	brcs	.+10     	; 0x702 <lcd_setcursor+0x12>
 6f8:	63 30       	cpi	r22, 0x03	; 3
 6fa:	49 f1       	breq	.+82     	; 0x74e <lcd_setcursor+0x5e>
 6fc:	64 30       	cpi	r22, 0x04	; 4
 6fe:	19 f1       	breq	.+70     	; 0x746 <lcd_setcursor+0x56>
 700:	08 95       	ret
 702:	61 30       	cpi	r22, 0x01	; 1
 704:	e9 f7       	brne	.-6      	; 0x700 <lcd_setcursor+0x10>
    {
        case 1:    // 1. Zeile
            data = LCD_SET_DDADR + LCD_DDADR_LINE1 + x;
 706:	80 58       	subi	r24, 0x80	; 128
 
////////////////////////////////////////////////////////////////////////////////
// Sendet einen Befehl an das LCD
void lcd_command( uint8_t data )
{
    LCD_PORT &= ~(1<<LCD_RS);    // RS auf 0 setzen
 708:	94 98       	cbi	0x12, 4	; 18
// Sendet eine 4-bit Ausgabeoperation an das LCD
static void lcd_out( uint8_t data )
{
    data &= 0xF0;                       // obere 4 Bit maskieren
 
    LCD_PORT &= ~(0xF0>>(4-LCD_DB));    // Maske lˆschen
 70a:	92 b3       	in	r25, 0x12	; 18
 70c:	90 7f       	andi	r25, 0xF0	; 240
 70e:	92 bb       	out	0x12, r25	; 18
    LCD_PORT |= (data>>(4-LCD_DB));     // Bits setzen
 710:	22 b3       	in	r18, 0x12	; 18
 712:	98 2f       	mov	r25, r24
 714:	92 95       	swap	r25
 716:	9f 70       	andi	r25, 0x0F	; 15
 718:	92 2b       	or	r25, r18
 71a:	92 bb       	out	0x12, r25	; 18
 
////////////////////////////////////////////////////////////////////////////////
// Erzeugt einen Enable-Puls
static void lcd_enable( void )
{
    LCD_PORT |= (1<<LCD_EN);     // Enable auf 1 setzen
 71c:	95 9a       	sbi	0x12, 5	; 18
	#else
		//round up by default
		__ticks_dc = (uint32_t)(ceil(fabs(__tmp)));
	#endif

	__builtin_avr_delay_cycles(__ticks_dc);
 71e:	94 e0       	ldi	r25, 0x04	; 4
 720:	9a 95       	dec	r25
 722:	f1 f7       	brne	.-4      	; 0x720 <lcd_setcursor+0x30>
    _delay_us( LCD_ENABLE_US );  // kurze Pause
    LCD_PORT &= ~(1<<LCD_EN);    // Enable auf 0 setzen
 724:	95 98       	cbi	0x12, 5	; 18
// Sendet eine 4-bit Ausgabeoperation an das LCD
static void lcd_out( uint8_t data )
{
    data &= 0xF0;                       // obere 4 Bit maskieren
 
    LCD_PORT &= ~(0xF0>>(4-LCD_DB));    // Maske lˆschen
 726:	92 b3       	in	r25, 0x12	; 18
 728:	90 7f       	andi	r25, 0xF0	; 240
 72a:	92 bb       	out	0x12, r25	; 18
    LCD_PORT |= (data>>(4-LCD_DB));     // Bits setzen
 72c:	92 b3       	in	r25, 0x12	; 18
 72e:	8f 70       	andi	r24, 0x0F	; 15
 730:	89 2b       	or	r24, r25
 732:	82 bb       	out	0x12, r24	; 18
 
////////////////////////////////////////////////////////////////////////////////
// Erzeugt einen Enable-Puls
static void lcd_enable( void )
{
    LCD_PORT |= (1<<LCD_EN);     // Enable auf 1 setzen
 734:	95 9a       	sbi	0x12, 5	; 18
 736:	84 e0       	ldi	r24, 0x04	; 4
 738:	8a 95       	dec	r24
 73a:	f1 f7       	brne	.-4      	; 0x738 <lcd_setcursor+0x48>
    _delay_us( LCD_ENABLE_US );  // kurze Pause
    LCD_PORT &= ~(1<<LCD_EN);    // Enable auf 0 setzen
 73c:	95 98       	cbi	0x12, 5	; 18
 73e:	98 ea       	ldi	r25, 0xA8	; 168
 740:	9a 95       	dec	r25
 742:	f1 f7       	brne	.-4      	; 0x740 <lcd_setcursor+0x50>
 744:	08 95       	ret
        case 3:    // 3. Zeile
            data = LCD_SET_DDADR + LCD_DDADR_LINE3 + x;
            break;
 
        case 4:    // 4. Zeile
            data = LCD_SET_DDADR + LCD_DDADR_LINE4 + x;
 746:	80 53       	subi	r24, 0x30	; 48
            break;
 748:	df cf       	rjmp	.-66     	; 0x708 <lcd_setcursor+0x18>
        case 1:    // 1. Zeile
            data = LCD_SET_DDADR + LCD_DDADR_LINE1 + x;
            break;
 
        case 2:    // 2. Zeile
            data = LCD_SET_DDADR + LCD_DDADR_LINE2 + x;
 74a:	80 54       	subi	r24, 0x40	; 64
            break;
 74c:	dd cf       	rjmp	.-70     	; 0x708 <lcd_setcursor+0x18>
 
        case 3:    // 3. Zeile
            data = LCD_SET_DDADR + LCD_DDADR_LINE3 + x;
 74e:	80 57       	subi	r24, 0x70	; 112
            break;
 750:	db cf       	rjmp	.-74     	; 0x708 <lcd_setcursor+0x18>

00000752 <lcd_string>:
 
////////////////////////////////////////////////////////////////////////////////
// Schreibt einen String auf das LCD
 
void lcd_string( const char *data )
{
 752:	fc 01       	movw	r30, r24
    while( *data != '\0' )
 754:	80 81       	ld	r24, Z
 756:	88 23       	and	r24, r24
 758:	11 f1       	breq	.+68     	; 0x79e <lcd_string+0x4c>
}
 
////////////////////////////////////////////////////////////////////////////////
// Schreibt einen String auf das LCD
 
void lcd_string( const char *data )
 75a:	31 96       	adiw	r30, 0x01	; 1
  
////////////////////////////////////////////////////////////////////////////////
// Sendet ein Datenbyte an das LCD
void lcd_data( uint8_t data )
{
    LCD_PORT |= (1<<LCD_RS);    // RS auf 1 setzen
 75c:	94 9a       	sbi	0x12, 4	; 18
// Sendet eine 4-bit Ausgabeoperation an das LCD
static void lcd_out( uint8_t data )
{
    data &= 0xF0;                       // obere 4 Bit maskieren
 
    LCD_PORT &= ~(0xF0>>(4-LCD_DB));    // Maske lˆschen
 75e:	92 b3       	in	r25, 0x12	; 18
 760:	90 7f       	andi	r25, 0xF0	; 240
 762:	92 bb       	out	0x12, r25	; 18
    LCD_PORT |= (data>>(4-LCD_DB));     // Bits setzen
 764:	22 b3       	in	r18, 0x12	; 18
 766:	98 2f       	mov	r25, r24
 768:	92 95       	swap	r25
 76a:	9f 70       	andi	r25, 0x0F	; 15
 76c:	92 2b       	or	r25, r18
 76e:	92 bb       	out	0x12, r25	; 18
 
////////////////////////////////////////////////////////////////////////////////
// Erzeugt einen Enable-Puls
static void lcd_enable( void )
{
    LCD_PORT |= (1<<LCD_EN);     // Enable auf 1 setzen
 770:	95 9a       	sbi	0x12, 5	; 18
 772:	94 e0       	ldi	r25, 0x04	; 4
 774:	9a 95       	dec	r25
 776:	f1 f7       	brne	.-4      	; 0x774 <lcd_string+0x22>
    _delay_us( LCD_ENABLE_US );  // kurze Pause
    LCD_PORT &= ~(1<<LCD_EN);    // Enable auf 0 setzen
 778:	95 98       	cbi	0x12, 5	; 18
// Sendet eine 4-bit Ausgabeoperation an das LCD
static void lcd_out( uint8_t data )
{
    data &= 0xF0;                       // obere 4 Bit maskieren
 
    LCD_PORT &= ~(0xF0>>(4-LCD_DB));    // Maske lˆschen
 77a:	92 b3       	in	r25, 0x12	; 18
 77c:	90 7f       	andi	r25, 0xF0	; 240
 77e:	92 bb       	out	0x12, r25	; 18
    LCD_PORT |= (data>>(4-LCD_DB));     // Bits setzen
 780:	92 b3       	in	r25, 0x12	; 18
 782:	8f 70       	andi	r24, 0x0F	; 15
 784:	89 2b       	or	r24, r25
 786:	82 bb       	out	0x12, r24	; 18
 
////////////////////////////////////////////////////////////////////////////////
// Erzeugt einen Enable-Puls
static void lcd_enable( void )
{
    LCD_PORT |= (1<<LCD_EN);     // Enable auf 1 setzen
 788:	95 9a       	sbi	0x12, 5	; 18
 78a:	84 e0       	ldi	r24, 0x04	; 4
 78c:	8a 95       	dec	r24
 78e:	f1 f7       	brne	.-4      	; 0x78c <lcd_string+0x3a>
    _delay_us( LCD_ENABLE_US );  // kurze Pause
    LCD_PORT &= ~(1<<LCD_EN);    // Enable auf 0 setzen
 790:	95 98       	cbi	0x12, 5	; 18
 792:	98 eb       	ldi	r25, 0xB8	; 184
 794:	9a 95       	dec	r25
 796:	f1 f7       	brne	.-4      	; 0x794 <lcd_string+0x42>
////////////////////////////////////////////////////////////////////////////////
// Schreibt einen String auf das LCD
 
void lcd_string( const char *data )
{
    while( *data != '\0' )
 798:	81 91       	ld	r24, Z+
 79a:	88 23       	and	r24, r24
 79c:	f9 f6       	brne	.-66     	; 0x75c <lcd_string+0xa>
 79e:	08 95       	ret

000007a0 <__udivmodhi4>:
 7a0:	aa 1b       	sub	r26, r26
 7a2:	bb 1b       	sub	r27, r27
 7a4:	51 e1       	ldi	r21, 0x11	; 17
 7a6:	07 c0       	rjmp	.+14     	; 0x7b6 <__udivmodhi4_ep>

000007a8 <__udivmodhi4_loop>:
 7a8:	aa 1f       	adc	r26, r26
 7aa:	bb 1f       	adc	r27, r27
 7ac:	a6 17       	cp	r26, r22
 7ae:	b7 07       	cpc	r27, r23
 7b0:	10 f0       	brcs	.+4      	; 0x7b6 <__udivmodhi4_ep>
 7b2:	a6 1b       	sub	r26, r22
 7b4:	b7 0b       	sbc	r27, r23

000007b6 <__udivmodhi4_ep>:
 7b6:	88 1f       	adc	r24, r24
 7b8:	99 1f       	adc	r25, r25
 7ba:	5a 95       	dec	r21
 7bc:	a9 f7       	brne	.-22     	; 0x7a8 <__udivmodhi4_loop>
 7be:	80 95       	com	r24
 7c0:	90 95       	com	r25
 7c2:	bc 01       	movw	r22, r24
 7c4:	cd 01       	movw	r24, r26
 7c6:	08 95       	ret

000007c8 <__divmodsi4>:
 7c8:	97 fb       	bst	r25, 7
 7ca:	09 2e       	mov	r0, r25
 7cc:	05 26       	eor	r0, r21
 7ce:	0e d0       	rcall	.+28     	; 0x7ec <__divmodsi4_neg1>
 7d0:	57 fd       	sbrc	r21, 7
 7d2:	04 d0       	rcall	.+8      	; 0x7dc <__divmodsi4_neg2>
 7d4:	14 d0       	rcall	.+40     	; 0x7fe <__udivmodsi4>
 7d6:	0a d0       	rcall	.+20     	; 0x7ec <__divmodsi4_neg1>
 7d8:	00 1c       	adc	r0, r0
 7da:	38 f4       	brcc	.+14     	; 0x7ea <__divmodsi4_exit>

000007dc <__divmodsi4_neg2>:
 7dc:	50 95       	com	r21
 7de:	40 95       	com	r20
 7e0:	30 95       	com	r19
 7e2:	21 95       	neg	r18
 7e4:	3f 4f       	sbci	r19, 0xFF	; 255
 7e6:	4f 4f       	sbci	r20, 0xFF	; 255
 7e8:	5f 4f       	sbci	r21, 0xFF	; 255

000007ea <__divmodsi4_exit>:
 7ea:	08 95       	ret

000007ec <__divmodsi4_neg1>:
 7ec:	f6 f7       	brtc	.-4      	; 0x7ea <__divmodsi4_exit>
 7ee:	90 95       	com	r25
 7f0:	80 95       	com	r24
 7f2:	70 95       	com	r23
 7f4:	61 95       	neg	r22
 7f6:	7f 4f       	sbci	r23, 0xFF	; 255
 7f8:	8f 4f       	sbci	r24, 0xFF	; 255
 7fa:	9f 4f       	sbci	r25, 0xFF	; 255
 7fc:	08 95       	ret

000007fe <__udivmodsi4>:
 7fe:	a1 e2       	ldi	r26, 0x21	; 33
 800:	1a 2e       	mov	r1, r26
 802:	aa 1b       	sub	r26, r26
 804:	bb 1b       	sub	r27, r27
 806:	fd 01       	movw	r30, r26
 808:	0d c0       	rjmp	.+26     	; 0x824 <__udivmodsi4_ep>

0000080a <__udivmodsi4_loop>:
 80a:	aa 1f       	adc	r26, r26
 80c:	bb 1f       	adc	r27, r27
 80e:	ee 1f       	adc	r30, r30
 810:	ff 1f       	adc	r31, r31
 812:	a2 17       	cp	r26, r18
 814:	b3 07       	cpc	r27, r19
 816:	e4 07       	cpc	r30, r20
 818:	f5 07       	cpc	r31, r21
 81a:	20 f0       	brcs	.+8      	; 0x824 <__udivmodsi4_ep>
 81c:	a2 1b       	sub	r26, r18
 81e:	b3 0b       	sbc	r27, r19
 820:	e4 0b       	sbc	r30, r20
 822:	f5 0b       	sbc	r31, r21

00000824 <__udivmodsi4_ep>:
 824:	66 1f       	adc	r22, r22
 826:	77 1f       	adc	r23, r23
 828:	88 1f       	adc	r24, r24
 82a:	99 1f       	adc	r25, r25
 82c:	1a 94       	dec	r1
 82e:	69 f7       	brne	.-38     	; 0x80a <__udivmodsi4_loop>
 830:	60 95       	com	r22
 832:	70 95       	com	r23
 834:	80 95       	com	r24
 836:	90 95       	com	r25
 838:	9b 01       	movw	r18, r22
 83a:	ac 01       	movw	r20, r24
 83c:	bd 01       	movw	r22, r26
 83e:	cf 01       	movw	r24, r30
 840:	08 95       	ret

00000842 <itoa>:
 842:	fb 01       	movw	r30, r22
 844:	9f 01       	movw	r18, r30
 846:	e8 94       	clt
 848:	42 30       	cpi	r20, 0x02	; 2
 84a:	bc f0       	brlt	.+46     	; 0x87a <itoa+0x38>
 84c:	45 32       	cpi	r20, 0x25	; 37
 84e:	ac f4       	brge	.+42     	; 0x87a <itoa+0x38>
 850:	4a 30       	cpi	r20, 0x0A	; 10
 852:	29 f4       	brne	.+10     	; 0x85e <itoa+0x1c>
 854:	97 fb       	bst	r25, 7
 856:	1e f4       	brtc	.+6      	; 0x85e <itoa+0x1c>
 858:	90 95       	com	r25
 85a:	81 95       	neg	r24
 85c:	9f 4f       	sbci	r25, 0xFF	; 255
 85e:	64 2f       	mov	r22, r20
 860:	77 27       	eor	r23, r23
 862:	9e df       	rcall	.-196    	; 0x7a0 <__udivmodhi4>
 864:	80 5d       	subi	r24, 0xD0	; 208
 866:	8a 33       	cpi	r24, 0x3A	; 58
 868:	0c f0       	brlt	.+2      	; 0x86c <itoa+0x2a>
 86a:	89 5d       	subi	r24, 0xD9	; 217
 86c:	81 93       	st	Z+, r24
 86e:	cb 01       	movw	r24, r22
 870:	00 97       	sbiw	r24, 0x00	; 0
 872:	a9 f7       	brne	.-22     	; 0x85e <itoa+0x1c>
 874:	16 f4       	brtc	.+4      	; 0x87a <itoa+0x38>
 876:	5d e2       	ldi	r21, 0x2D	; 45
 878:	51 93       	st	Z+, r21
 87a:	10 82       	st	Z, r1
 87c:	c9 01       	movw	r24, r18
 87e:	00 c0       	rjmp	.+0      	; 0x880 <strrev>

00000880 <strrev>:
 880:	dc 01       	movw	r26, r24
 882:	fc 01       	movw	r30, r24
 884:	67 2f       	mov	r22, r23
 886:	71 91       	ld	r23, Z+
 888:	77 23       	and	r23, r23
 88a:	e1 f7       	brne	.-8      	; 0x884 <strrev+0x4>
 88c:	32 97       	sbiw	r30, 0x02	; 2
 88e:	04 c0       	rjmp	.+8      	; 0x898 <strrev+0x18>
 890:	7c 91       	ld	r23, X
 892:	6d 93       	st	X+, r22
 894:	70 83       	st	Z, r23
 896:	62 91       	ld	r22, -Z
 898:	ae 17       	cp	r26, r30
 89a:	bf 07       	cpc	r27, r31
 89c:	c8 f3       	brcs	.-14     	; 0x890 <strrev+0x10>
 89e:	08 95       	ret

000008a0 <_exit>:
 8a0:	f8 94       	cli

000008a2 <__stop_program>:
 8a2:	ff cf       	rjmp	.-2      	; 0x8a2 <__stop_program>
